(lp1
(i__main__
Pixel
p2
(dp3
S'y'
I790
sS'x'
I790
sS'z'
I790
sS'label'
p4
I790
sba(i__main__
Pixel
p5
(dp6
S'y'
I1760
sS'x'
I1760
sS'z'
I1760
sg4
I1760
sba(i__main__
Pixel
p7
(dp8
S'y'
I607
sS'x'
I607
sS'z'
I607
sg4
I607
sba(i__main__
Pixel
p9
(dp10
S'y'
I643
sS'x'
I643
sS'z'
I643
sg4
I643
sba(i__main__
Pixel
p11
(dp12
S'y'
I800
sS'x'
I800
sS'z'
I800
sg4
I800
sba(i__main__
Pixel
p13
(dp14
S'y'
I378
sS'x'
I378
sS'z'
I378
sg4
I378
sba(i__main__
Pixel
p15
(dp16
S'y'
I1806
sS'x'
I1806
sS'z'
I1806
sg4
I1806
sba(i__main__
Pixel
p17
(dp18
S'y'
I243
sS'x'
I243
sS'z'
I243
sg4
I243
sba(i__main__
Pixel
p19
(dp20
S'y'
I287
sS'x'
I287
sS'z'
I287
sg4
I287
sba(i__main__
Pixel
p21
(dp22
S'y'
I1298
sS'x'
I1298
sS'z'
I1298
sg4
I1298
sba(i__main__
Pixel
p23
(dp24
S'y'
I299
sS'x'
I299
sS'z'
I299
sg4
I299
sba(i__main__
Pixel
p25
(dp26
S'y'
I1284
sS'x'
I1284
sS'z'
I1284
sg4
I1284
sba(i__main__
Pixel
p27
(dp28
S'y'
I588
sS'x'
I588
sS'z'
I588
sg4
I588
sba(i__main__
Pixel
p29
(dp30
S'y'
I179
sS'x'
I179
sS'z'
I179
sg4
I179
sba(i__main__
Pixel
p31
(dp32
S'y'
I123
sS'x'
I123
sS'z'
I123
sg4
I123
sba(i__main__
Pixel
p33
(dp34
S'y'
I358
sS'x'
I358
sS'z'
I358
sg4
I358
sba(i__main__
Pixel
p35
(dp36
S'y'
I1718
sS'x'
I1718
sS'z'
I1718
sg4
I1718
sba(i__main__
Pixel
p37
(dp38
S'y'
I1123
sS'x'
I1123
sS'z'
I1123
sg4
I1123
sba(i__main__
Pixel
p39
(dp40
S'y'
I1706
sS'x'
I1706
sS'z'
I1706
sg4
I1706
sba(i__main__
Pixel
p41
(dp42
S'y'
I658
sS'x'
I658
sS'z'
I658
sg4
I658
sba(i__main__
Pixel
p43
(dp44
S'y'
I1677
sS'x'
I1677
sS'z'
I1677
sg4
I1677
sba(i__main__
Pixel
p45
(dp46
S'y'
I1049
sS'x'
I1049
sS'z'
I1049
sg4
I1049
sba(i__main__
Pixel
p47
(dp48
S'y'
I1297
sS'x'
I1297
sS'z'
I1297
sg4
I1297
sba(i__main__
Pixel
p49
(dp50
S'y'
I951
sS'x'
I951
sS'z'
I951
sg4
I951
sba(i__main__
Pixel
p51
(dp52
S'y'
I1752
sS'x'
I1752
sS'z'
I1752
sg4
I1752
sba(i__main__
Pixel
p53
(dp54
S'y'
I1955
sS'x'
I1955
sS'z'
I1955
sg4
I1955
sba(i__main__
Pixel
p55
(dp56
S'y'
I501
sS'x'
I501
sS'z'
I501
sg4
I501
sba(i__main__
Pixel
p57
(dp58
S'y'
I304
sS'x'
I304
sS'z'
I304
sg4
I304
sba(i__main__
Pixel
p59
(dp60
S'y'
I1229
sS'x'
I1229
sS'z'
I1229
sg4
I1229
sba(i__main__
Pixel
p61
(dp62
S'y'
I1730
sS'x'
I1730
sS'z'
I1730
sg4
I1730
sba(i__main__
Pixel
p63
(dp64
S'y'
I1593
sS'x'
I1593
sS'z'
I1593
sg4
I1593
sba(i__main__
Pixel
p65
(dp66
S'y'
I1038
sS'x'
I1038
sS'z'
I1038
sg4
I1038
sba(i__main__
Pixel
p67
(dp68
S'y'
I960
sS'x'
I960
sS'z'
I960
sg4
I960
sba(i__main__
Pixel
p69
(dp70
S'y'
I468
sS'x'
I468
sS'z'
I468
sg4
I468
sba(i__main__
Pixel
p71
(dp72
S'y'
I777
sS'x'
I777
sS'z'
I777
sg4
I777
sba(i__main__
Pixel
p73
(dp74
S'y'
I1436
sS'x'
I1436
sS'z'
I1436
sg4
I1436
sba(i__main__
Pixel
p75
(dp76
S'y'
I1910
sS'x'
I1910
sS'z'
I1910
sg4
I1910
sba(i__main__
Pixel
p77
(dp78
S'y'
I910
sS'x'
I910
sS'z'
I910
sg4
I910
sba(i__main__
Pixel
p79
(dp80
S'y'
I646
sS'x'
I646
sS'z'
I646
sg4
I646
sba(i__main__
Pixel
p81
(dp82
S'y'
I987
sS'x'
I987
sS'z'
I987
sg4
I987
sba(i__main__
Pixel
p83
(dp84
S'y'
I1457
sS'x'
I1457
sS'z'
I1457
sg4
I1457
sba(i__main__
Pixel
p85
(dp86
S'y'
I1358
sS'x'
I1358
sS'z'
I1358
sg4
I1358
sba(i__main__
Pixel
p87
(dp88
S'y'
I288
sS'x'
I288
sS'z'
I288
sg4
I288
sba(i__main__
Pixel
p89
(dp90
S'y'
I1129
sS'x'
I1129
sS'z'
I1129
sg4
I1129
sba(i__main__
Pixel
p91
(dp92
S'y'
I28
sS'x'
I28
sS'z'
I28
sg4
I28
sba(i__main__
Pixel
p93
(dp94
S'y'
I1961
sS'x'
I1961
sS'z'
I1961
sg4
I1961
sba(i__main__
Pixel
p95
(dp96
S'y'
I147
sS'x'
I147
sS'z'
I147
sg4
I147
sba(i__main__
Pixel
p97
(dp98
S'y'
I1849
sS'x'
I1849
sS'z'
I1849
sg4
I1849
sba(i__main__
Pixel
p99
(dp100
S'y'
I1046
sS'x'
I1046
sS'z'
I1046
sg4
I1046
sba(i__main__
Pixel
p101
(dp102
S'y'
I1064
sS'x'
I1064
sS'z'
I1064
sg4
I1064
sba(i__main__
Pixel
p103
(dp104
S'y'
I212
sS'x'
I212
sS'z'
I212
sg4
I212
sba(i__main__
Pixel
p105
(dp106
S'y'
I738
sS'x'
I738
sS'z'
I738
sg4
I738
sba(i__main__
Pixel
p107
(dp108
S'y'
I434
sS'x'
I434
sS'z'
I434
sg4
I434
sba(i__main__
Pixel
p109
(dp110
S'y'
I527
sS'x'
I527
sS'z'
I527
sg4
I527
sba(i__main__
Pixel
p111
(dp112
S'y'
I1034
sS'x'
I1034
sS'z'
I1034
sg4
I1034
sba(i__main__
Pixel
p113
(dp114
S'y'
I1920
sS'x'
I1920
sS'z'
I1920
sg4
I1920
sba(i__main__
Pixel
p115
(dp116
S'y'
I914
sS'x'
I914
sS'z'
I914
sg4
I914
sba(i__main__
Pixel
p117
(dp118
S'y'
I555
sS'x'
I555
sS'z'
I555
sg4
I555
sba(i__main__
Pixel
p119
(dp120
S'y'
I1951
sS'x'
I1951
sS'z'
I1951
sg4
I1951
sba(i__main__
Pixel
p121
(dp122
S'y'
I269
sS'x'
I269
sS'z'
I269
sg4
I269
sba(i__main__
Pixel
p123
(dp124
S'y'
I1745
sS'x'
I1745
sS'z'
I1745
sg4
I1745
sba(i__main__
Pixel
p125
(dp126
S'y'
I1888
sS'x'
I1888
sS'z'
I1888
sg4
I1888
sba(i__main__
Pixel
p127
(dp128
S'y'
I1320
sS'x'
I1320
sS'z'
I1320
sg4
I1320
sba(i__main__
Pixel
p129
(dp130
S'y'
I721
sS'x'
I721
sS'z'
I721
sg4
I721
sba(i__main__
Pixel
p131
(dp132
S'y'
I1015
sS'x'
I1015
sS'z'
I1015
sg4
I1015
sba(i__main__
Pixel
p133
(dp134
S'y'
I168
sS'x'
I168
sS'z'
I168
sg4
I168
sba(i__main__
Pixel
p135
(dp136
S'y'
I1165
sS'x'
I1165
sS'z'
I1165
sg4
I1165
sba(i__main__
Pixel
p137
(dp138
S'y'
I265
sS'x'
I265
sS'z'
I265
sg4
I265
sba(i__main__
Pixel
p139
(dp140
S'y'
I926
sS'x'
I926
sS'z'
I926
sg4
I926
sba(i__main__
Pixel
p141
(dp142
S'y'
I1624
sS'x'
I1624
sS'z'
I1624
sg4
I1624
sba(i__main__
Pixel
p143
(dp144
S'y'
I962
sS'x'
I962
sS'z'
I962
sg4
I962
sba(i__main__
Pixel
p145
(dp146
S'y'
I1314
sS'x'
I1314
sS'z'
I1314
sg4
I1314
sba(i__main__
Pixel
p147
(dp148
S'y'
I1767
sS'x'
I1767
sS'z'
I1767
sg4
I1767
sba(i__main__
Pixel
p149
(dp150
S'y'
I1259
sS'x'
I1259
sS'z'
I1259
sg4
I1259
sba(i__main__
Pixel
p151
(dp152
S'y'
I1719
sS'x'
I1719
sS'z'
I1719
sg4
I1719
sba(i__main__
Pixel
p153
(dp154
S'y'
I366
sS'x'
I366
sS'z'
I366
sg4
I366
sba(i__main__
Pixel
p155
(dp156
S'y'
I258
sS'x'
I258
sS'z'
I258
sg4
I258
sba(i__main__
Pixel
p157
(dp158
S'y'
I1710
sS'x'
I1710
sS'z'
I1710
sg4
I1710
sba(i__main__
Pixel
p159
(dp160
S'y'
I1226
sS'x'
I1226
sS'z'
I1226
sg4
I1226
sba(i__main__
Pixel
p161
(dp162
S'y'
I546
sS'x'
I546
sS'z'
I546
sg4
I546
sba(i__main__
Pixel
p163
(dp164
S'y'
I1556
sS'x'
I1556
sS'z'
I1556
sg4
I1556
sba(i__main__
Pixel
p165
(dp166
S'y'
I1737
sS'x'
I1737
sS'z'
I1737
sg4
I1737
sba(i__main__
Pixel
p167
(dp168
S'y'
I1184
sS'x'
I1184
sS'z'
I1184
sg4
I1184
sba(i__main__
Pixel
p169
(dp170
S'y'
I685
sS'x'
I685
sS'z'
I685
sg4
I685
sba(i__main__
Pixel
p171
(dp172
S'y'
I772
sS'x'
I772
sS'z'
I772
sg4
I772
sba(i__main__
Pixel
p173
(dp174
S'y'
I274
sS'x'
I274
sS'z'
I274
sg4
I274
sba(i__main__
Pixel
p175
(dp176
S'y'
I852
sS'x'
I852
sS'z'
I852
sg4
I852
sba(i__main__
Pixel
p177
(dp178
S'y'
I1620
sS'x'
I1620
sS'z'
I1620
sg4
I1620
sba(i__main__
Pixel
p179
(dp180
S'y'
I1382
sS'x'
I1382
sS'z'
I1382
sg4
I1382
sba(i__main__
Pixel
p181
(dp182
S'y'
I278
sS'x'
I278
sS'z'
I278
sg4
I278
sba(i__main__
Pixel
p183
(dp184
S'y'
I1144
sS'x'
I1144
sS'z'
I1144
sg4
I1144
sba(i__main__
Pixel
p185
(dp186
S'y'
I1652
sS'x'
I1652
sS'z'
I1652
sg4
I1652
sba(i__main__
Pixel
p187
(dp188
S'y'
I1982
sS'x'
I1982
sS'z'
I1982
sg4
I1982
sba(i__main__
Pixel
p189
(dp190
S'y'
I462
sS'x'
I462
sS'z'
I462
sg4
I462
sba(i__main__
Pixel
p191
(dp192
S'y'
I454
sS'x'
I454
sS'z'
I454
sg4
I454
sba(i__main__
Pixel
p193
(dp194
S'y'
I1958
sS'x'
I1958
sS'z'
I1958
sg4
I1958
sba(i__main__
Pixel
p195
(dp196
S'y'
I1243
sS'x'
I1243
sS'z'
I1243
sg4
I1243
sba(i__main__
Pixel
p197
(dp198
S'y'
I1954
sS'x'
I1954
sS'z'
I1954
sg4
I1954
sba(i__main__
Pixel
p199
(dp200
S'y'
I1606
sS'x'
I1606
sS'z'
I1606
sg4
I1606
sba(i__main__
Pixel
p201
(dp202
S'y'
I1304
sS'x'
I1304
sS'z'
I1304
sg4
I1304
sba(i__main__
Pixel
p203
(dp204
S'y'
I380
sS'x'
I380
sS'z'
I380
sg4
I380
sba(i__main__
Pixel
p205
(dp206
S'y'
I157
sS'x'
I157
sS'z'
I157
sg4
I157
sba(i__main__
Pixel
p207
(dp208
S'y'
I478
sS'x'
I478
sS'z'
I478
sg4
I478
sba(i__main__
Pixel
p209
(dp210
S'y'
I1929
sS'x'
I1929
sS'z'
I1929
sg4
I1929
sba(i__main__
Pixel
p211
(dp212
S'y'
I1309
sS'x'
I1309
sS'z'
I1309
sg4
I1309
sba(i__main__
Pixel
p213
(dp214
S'y'
I207
sS'x'
I207
sS'z'
I207
sg4
I207
sba(i__main__
Pixel
p215
(dp216
S'y'
I1235
sS'x'
I1235
sS'z'
I1235
sg4
I1235
sba(i__main__
Pixel
p217
(dp218
S'y'
I1098
sS'x'
I1098
sS'z'
I1098
sg4
I1098
sba(i__main__
Pixel
p219
(dp220
S'y'
I153
sS'x'
I153
sS'z'
I153
sg4
I153
sba(i__main__
Pixel
p221
(dp222
S'y'
I1896
sS'x'
I1896
sS'z'
I1896
sg4
I1896
sba(i__main__
Pixel
p223
(dp224
S'y'
I315
sS'x'
I315
sS'z'
I315
sg4
I315
sba(i__main__
Pixel
p225
(dp226
S'y'
I710
sS'x'
I710
sS'z'
I710
sg4
I710
sba(i__main__
Pixel
p227
(dp228
S'y'
I1575
sS'x'
I1575
sS'z'
I1575
sg4
I1575
sba(i__main__
Pixel
p229
(dp230
S'y'
I1503
sS'x'
I1503
sS'z'
I1503
sg4
I1503
sba(i__main__
Pixel
p231
(dp232
S'y'
I457
sS'x'
I457
sS'z'
I457
sg4
I457
sba(i__main__
Pixel
p233
(dp234
S'y'
I733
sS'x'
I733
sS'z'
I733
sg4
I733
sba(i__main__
Pixel
p235
(dp236
S'y'
I1294
sS'x'
I1294
sS'z'
I1294
sg4
I1294
sba(i__main__
Pixel
p237
(dp238
S'y'
I181
sS'x'
I181
sS'z'
I181
sg4
I181
sba(i__main__
Pixel
p239
(dp240
S'y'
I1290
sS'x'
I1290
sS'z'
I1290
sg4
I1290
sba(i__main__
Pixel
p241
(dp242
S'y'
I1012
sS'x'
I1012
sS'z'
I1012
sg4
I1012
sba(i__main__
Pixel
p243
(dp244
S'y'
I694
sS'x'
I694
sS'z'
I694
sg4
I694
sba(i__main__
Pixel
p245
(dp246
S'y'
I372
sS'x'
I372
sS'z'
I372
sg4
I372
sba(i__main__
Pixel
p247
(dp248
S'y'
I56
sS'x'
I56
sS'z'
I56
sg4
I56
sba(i__main__
Pixel
p249
(dp250
S'y'
I1266
sS'x'
I1266
sS'z'
I1266
sg4
I1266
sba(i__main__
Pixel
p251
(dp252
S'y'
I90
sS'x'
I90
sS'z'
I90
sg4
I90
sba(i__main__
Pixel
p253
(dp254
S'y'
I1640
sS'x'
I1640
sS'z'
I1640
sg4
I1640
sba(i__main__
Pixel
p255
(dp256
S'y'
I1062
sS'x'
I1062
sS'z'
I1062
sg4
I1062
sba(i__main__
Pixel
p257
(dp258
S'y'
I1434
sS'x'
I1434
sS'z'
I1434
sg4
I1434
sba(i__main__
Pixel
p259
(dp260
S'y'
I31
sS'x'
I31
sS'z'
I31
sg4
I31
sba(i__main__
Pixel
p261
(dp262
S'y'
I1713
sS'x'
I1713
sS'z'
I1713
sg4
I1713
sba(i__main__
Pixel
p263
(dp264
S'y'
I1852
sS'x'
I1852
sS'z'
I1852
sg4
I1852
sba(i__main__
Pixel
p265
(dp266
S'y'
I984
sS'x'
I984
sS'z'
I984
sg4
I984
sba(i__main__
Pixel
p267
(dp268
S'y'
I273
sS'x'
I273
sS'z'
I273
sg4
I273
sba(i__main__
Pixel
p269
(dp270
S'y'
I429
sS'x'
I429
sS'z'
I429
sg4
I429
sba(i__main__
Pixel
p271
(dp272
S'y'
I1043
sS'x'
I1043
sS'z'
I1043
sg4
I1043
sba(i__main__
Pixel
p273
(dp274
S'y'
I1813
sS'x'
I1813
sS'z'
I1813
sg4
I1813
sba(i__main__
Pixel
p275
(dp276
S'y'
I10
sS'x'
I10
sS'z'
I10
sg4
I10
sba(i__main__
Pixel
p277
(dp278
S'y'
I656
sS'x'
I656
sS'z'
I656
sg4
I656
sba(i__main__
Pixel
p279
(dp280
S'y'
I21
sS'x'
I21
sS'z'
I21
sg4
I21
sba(i__main__
Pixel
p281
(dp282
S'y'
I824
sS'x'
I824
sS'z'
I824
sg4
I824
sba(i__main__
Pixel
p283
(dp284
S'y'
I1186
sS'x'
I1186
sS'z'
I1186
sg4
I1186
sba(i__main__
Pixel
p285
(dp286
S'y'
I1704
sS'x'
I1704
sS'z'
I1704
sg4
I1704
sba(i__main__
Pixel
p287
(dp288
S'y'
I1161
sS'x'
I1161
sS'z'
I1161
sg4
I1161
sba(i__main__
Pixel
p289
(dp290
S'y'
I414
sS'x'
I414
sS'z'
I414
sg4
I414
sba(i__main__
Pixel
p291
(dp292
S'y'
I1887
sS'x'
I1887
sS'z'
I1887
sg4
I1887
sba(i__main__
Pixel
p293
(dp294
S'y'
I186
sS'x'
I186
sS'z'
I186
sg4
I186
sba(i__main__
Pixel
p295
(dp296
S'y'
I788
sS'x'
I788
sS'z'
I788
sg4
I788
sba(i__main__
Pixel
p297
(dp298
S'y'
I481
sS'x'
I481
sS'z'
I481
sg4
I481
sba(i__main__
Pixel
p299
(dp300
S'y'
I1798
sS'x'
I1798
sS'z'
I1798
sg4
I1798
sba(i__main__
Pixel
p301
(dp302
S'y'
I1319
sS'x'
I1319
sS'z'
I1319
sg4
I1319
sba(i__main__
Pixel
p303
(dp304
S'y'
I1765
sS'x'
I1765
sS'z'
I1765
sg4
I1765
sba(i__main__
Pixel
p305
(dp306
S'y'
I1415
sS'x'
I1415
sS'z'
I1415
sg4
I1415
sba(i__main__
Pixel
p307
(dp308
S'y'
I1276
sS'x'
I1276
sS'z'
I1276
sg4
I1276
sba(i__main__
Pixel
p309
(dp310
S'y'
I1690
sS'x'
I1690
sS'z'
I1690
sg4
I1690
sba(i__main__
Pixel
p311
(dp312
S'y'
I385
sS'x'
I385
sS'z'
I385
sg4
I385
sba(i__main__
Pixel
p313
(dp314
S'y'
I1047
sS'x'
I1047
sS'z'
I1047
sg4
I1047
sba(i__main__
Pixel
p315
(dp316
S'y'
I438
sS'x'
I438
sS'z'
I438
sg4
I438
sba(i__main__
Pixel
p317
(dp318
S'y'
I509
sS'x'
I509
sS'z'
I509
sg4
I509
sba(i__main__
Pixel
p319
(dp320
S'y'
I1780
sS'x'
I1780
sS'z'
I1780
sg4
I1780
sba(i__main__
Pixel
p321
(dp322
S'y'
I742
sS'x'
I742
sS'z'
I742
sg4
I742
sba(i__main__
Pixel
p323
(dp324
S'y'
I488
sS'x'
I488
sS'z'
I488
sg4
I488
sba(i__main__
Pixel
p325
(dp326
S'y'
I686
sS'x'
I686
sS'z'
I686
sg4
I686
sba(i__main__
Pixel
p327
(dp328
S'y'
I1612
sS'x'
I1612
sS'z'
I1612
sg4
I1612
sba(i__main__
Pixel
p329
(dp330
S'y'
I584
sS'x'
I584
sS'z'
I584
sg4
I584
sba(i__main__
Pixel
p331
(dp332
S'y'
I1795
sS'x'
I1795
sS'z'
I1795
sg4
I1795
sba(i__main__
Pixel
p333
(dp334
S'y'
I389
sS'x'
I389
sS'z'
I389
sg4
I389
sba(i__main__
Pixel
p335
(dp336
S'y'
I972
sS'x'
I972
sS'z'
I972
sg4
I972
sba(i__main__
Pixel
p337
(dp338
S'y'
I1168
sS'x'
I1168
sS'z'
I1168
sg4
I1168
sba(i__main__
Pixel
p339
(dp340
S'y'
I613
sS'x'
I613
sS'z'
I613
sg4
I613
sba(i__main__
Pixel
p341
(dp342
S'y'
I659
sS'x'
I659
sS'z'
I659
sg4
I659
sba(i__main__
Pixel
p343
(dp344
S'y'
I1193
sS'x'
I1193
sS'z'
I1193
sg4
I1193
sba(i__main__
Pixel
p345
(dp346
S'y'
I1838
sS'x'
I1838
sS'z'
I1838
sg4
I1838
sba(i__main__
Pixel
p347
(dp348
S'y'
I124
sS'x'
I124
sS'z'
I124
sg4
I124
sba(i__main__
Pixel
p349
(dp350
S'y'
I1619
sS'x'
I1619
sS'z'
I1619
sg4
I1619
sba(i__main__
Pixel
p351
(dp352
S'y'
I1372
sS'x'
I1372
sS'z'
I1372
sg4
I1372
sba(i__main__
Pixel
p353
(dp354
S'y'
I1991
sS'x'
I1991
sS'z'
I1991
sg4
I1991
sba(i__main__
Pixel
p355
(dp356
S'y'
I198
sS'x'
I198
sS'z'
I198
sg4
I198
sba(i__main__
Pixel
p357
(dp358
S'y'
I1957
sS'x'
I1957
sS'z'
I1957
sg4
I1957
sba(i__main__
Pixel
p359
(dp360
S'y'
I797
sS'x'
I797
sS'z'
I797
sg4
I797
sba(i__main__
Pixel
p361
(dp362
S'y'
I900
sS'x'
I900
sS'z'
I900
sg4
I900
sba(i__main__
Pixel
p363
(dp364
S'y'
I1094
sS'x'
I1094
sS'z'
I1094
sg4
I1094
sba(i__main__
Pixel
p365
(dp366
S'y'
I1547
sS'x'
I1547
sS'z'
I1547
sg4
I1547
sba(i__main__
Pixel
p367
(dp368
S'y'
I690
sS'x'
I690
sS'z'
I690
sg4
I690
sba(i__main__
Pixel
p369
(dp370
S'y'
I340
sS'x'
I340
sS'z'
I340
sg4
I340
sba(i__main__
Pixel
p371
(dp372
S'y'
I344
sS'x'
I344
sS'z'
I344
sg4
I344
sba(i__main__
Pixel
p373
(dp374
S'y'
I1544
sS'x'
I1544
sS'z'
I1544
sg4
I1544
sba(i__main__
Pixel
p375
(dp376
S'y'
I47
sS'x'
I47
sS'z'
I47
sg4
I47
sba(i__main__
Pixel
p377
(dp378
S'y'
I1903
sS'x'
I1903
sS'z'
I1903
sg4
I1903
sba(i__main__
Pixel
p379
(dp380
S'y'
I1092
sS'x'
I1092
sS'z'
I1092
sg4
I1092
sba(i__main__
Pixel
p381
(dp382
S'y'
I707
sS'x'
I707
sS'z'
I707
sg4
I707
sba(i__main__
Pixel
p383
(dp384
S'y'
I1418
sS'x'
I1418
sS'z'
I1418
sg4
I1418
sba(i__main__
Pixel
p385
(dp386
S'y'
I1363
sS'x'
I1363
sS'z'
I1363
sg4
I1363
sba(i__main__
Pixel
p387
(dp388
S'y'
I1912
sS'x'
I1912
sS'z'
I1912
sg4
I1912
sba(i__main__
Pixel
p389
(dp390
S'y'
I112
sS'x'
I112
sS'z'
I112
sg4
I112
sba(i__main__
Pixel
p391
(dp392
S'y'
I751
sS'x'
I751
sS'z'
I751
sg4
I751
sba(i__main__
Pixel
p393
(dp394
S'y'
I80
sS'x'
I80
sS'z'
I80
sg4
I80
sba(i__main__
Pixel
p395
(dp396
S'y'
I444
sS'x'
I444
sS'z'
I444
sg4
I444
sba(i__main__
Pixel
p397
(dp398
S'y'
I77
sS'x'
I77
sS'z'
I77
sg4
I77
sba(i__main__
Pixel
p399
(dp400
S'y'
I1495
sS'x'
I1495
sS'z'
I1495
sg4
I1495
sba(i__main__
Pixel
p401
(dp402
S'y'
I1744
sS'x'
I1744
sS'z'
I1744
sg4
I1744
sba(i__main__
Pixel
p403
(dp404
S'y'
I1458
sS'x'
I1458
sS'z'
I1458
sg4
I1458
sba(i__main__
Pixel
p405
(dp406
S'y'
I604
sS'x'
I604
sS'z'
I604
sg4
I604
sba(i__main__
Pixel
p407
(dp408
S'y'
I556
sS'x'
I556
sS'z'
I556
sg4
I556
sba(i__main__
Pixel
p409
(dp410
S'y'
I1082
sS'x'
I1082
sS'z'
I1082
sg4
I1082
sba(i__main__
Pixel
p411
(dp412
S'y'
I1639
sS'x'
I1639
sS'z'
I1639
sg4
I1639
sba(i__main__
Pixel
p413
(dp414
S'y'
I1860
sS'x'
I1860
sS'z'
I1860
sg4
I1860
sba(i__main__
Pixel
p415
(dp416
S'y'
I1654
sS'x'
I1654
sS'z'
I1654
sg4
I1654
sba(i__main__
Pixel
p417
(dp418
S'y'
I1809
sS'x'
I1809
sS'z'
I1809
sg4
I1809
sba(i__main__
Pixel
p419
(dp420
S'y'
I1705
sS'x'
I1705
sS'z'
I1705
sg4
I1705
sba(i__main__
Pixel
p421
(dp422
S'y'
I1687
sS'x'
I1687
sS'z'
I1687
sg4
I1687
sba(i__main__
Pixel
p423
(dp424
S'y'
I921
sS'x'
I921
sS'z'
I921
sg4
I921
sba(i__main__
Pixel
p425
(dp426
S'y'
I1800
sS'x'
I1800
sS'z'
I1800
sg4
I1800
sba(i__main__
Pixel
p427
(dp428
S'y'
I73
sS'x'
I73
sS'z'
I73
sg4
I73
sba(i__main__
Pixel
p429
(dp430
S'y'
I1561
sS'x'
I1561
sS'z'
I1561
sg4
I1561
sba(i__main__
Pixel
p431
(dp432
S'y'
I432
sS'x'
I432
sS'z'
I432
sg4
I432
sba(i__main__
Pixel
p433
(dp434
S'y'
I1036
sS'x'
I1036
sS'z'
I1036
sg4
I1036
sba(i__main__
Pixel
p435
(dp436
S'y'
I1537
sS'x'
I1537
sS'z'
I1537
sg4
I1537
sba(i__main__
Pixel
p437
(dp438
S'y'
I1892
sS'x'
I1892
sS'z'
I1892
sg4
I1892
sba(i__main__
Pixel
p439
(dp440
S'y'
I1512
sS'x'
I1512
sS'z'
I1512
sg4
I1512
sba(i__main__
Pixel
p441
(dp442
S'y'
I228
sS'x'
I228
sS'z'
I228
sg4
I228
sba(i__main__
Pixel
p443
(dp444
S'y'
I165
sS'x'
I165
sS'z'
I165
sg4
I165
sba(i__main__
Pixel
p445
(dp446
S'y'
I1198
sS'x'
I1198
sS'z'
I1198
sg4
I1198
sba(i__main__
Pixel
p447
(dp448
S'y'
I1429
sS'x'
I1429
sS'z'
I1429
sg4
I1429
sba(i__main__
Pixel
p449
(dp450
S'y'
I1336
sS'x'
I1336
sS'z'
I1336
sg4
I1336
sba(i__main__
Pixel
p451
(dp452
S'y'
I1796
sS'x'
I1796
sS'z'
I1796
sg4
I1796
sba(i__main__
Pixel
p453
(dp454
S'y'
I1452
sS'x'
I1452
sS'z'
I1452
sg4
I1452
sba(i__main__
Pixel
p455
(dp456
S'y'
I1832
sS'x'
I1832
sS'z'
I1832
sg4
I1832
sba(i__main__
Pixel
p457
(dp458
S'y'
I175
sS'x'
I175
sS'z'
I175
sg4
I175
sba(i__main__
Pixel
p459
(dp460
S'y'
I149
sS'x'
I149
sS'z'
I149
sg4
I149
sba(i__main__
Pixel
p461
(dp462
S'y'
I759
sS'x'
I759
sS'z'
I759
sg4
I759
sba(i__main__
Pixel
p463
(dp464
S'y'
I111
sS'x'
I111
sS'z'
I111
sg4
I111
sba(i__main__
Pixel
p465
(dp466
S'y'
I1059
sS'x'
I1059
sS'z'
I1059
sg4
I1059
sba(i__main__
Pixel
p467
(dp468
S'y'
I1758
sS'x'
I1758
sS'z'
I1758
sg4
I1758
sba(i__main__
Pixel
p469
(dp470
S'y'
I148
sS'x'
I148
sS'z'
I148
sg4
I148
sba(i__main__
Pixel
p471
(dp472
S'y'
I141
sS'x'
I141
sS'z'
I141
sg4
I141
sba(i__main__
Pixel
p473
(dp474
S'y'
I1389
sS'x'
I1389
sS'z'
I1389
sg4
I1389
sba(i__main__
Pixel
p475
(dp476
S'y'
I446
sS'x'
I446
sS'z'
I446
sg4
I446
sba(i__main__
Pixel
p477
(dp478
S'y'
I1053
sS'x'
I1053
sS'z'
I1053
sg4
I1053
sba(i__main__
Pixel
p479
(dp480
S'y'
I5
sS'x'
I5
sS'z'
I5
sg4
I5
sba(i__main__
Pixel
p481
(dp482
S'y'
I1032
sS'x'
I1032
sS'z'
I1032
sg4
I1032
sba(i__main__
Pixel
p483
(dp484
S'y'
I1125
sS'x'
I1125
sS'z'
I1125
sg4
I1125
sba(i__main__
Pixel
p485
(dp486
S'y'
I1253
sS'x'
I1253
sS'z'
I1253
sg4
I1253
sba(i__main__
Pixel
p487
(dp488
S'y'
I1194
sS'x'
I1194
sS'z'
I1194
sg4
I1194
sba(i__main__
Pixel
p489
(dp490
S'y'
I1904
sS'x'
I1904
sS'z'
I1904
sg4
I1904
sba(i__main__
Pixel
p491
(dp492
S'y'
I1163
sS'x'
I1163
sS'z'
I1163
sg4
I1163
sba(i__main__
Pixel
p493
(dp494
S'y'
I1519
sS'x'
I1519
sS'z'
I1519
sg4
I1519
sba(i__main__
Pixel
p495
(dp496
S'y'
I1688
sS'x'
I1688
sS'z'
I1688
sg4
I1688
sba(i__main__
Pixel
p497
(dp498
S'y'
I1085
sS'x'
I1085
sS'z'
I1085
sg4
I1085
sba(i__main__
Pixel
p499
(dp500
S'y'
I1371
sS'x'
I1371
sS'z'
I1371
sg4
I1371
sba(i__main__
Pixel
p501
(dp502
S'y'
I1992
sS'x'
I1992
sS'z'
I1992
sg4
I1992
sba(i__main__
Pixel
p503
(dp504
S'y'
I1081
sS'x'
I1081
sS'z'
I1081
sg4
I1081
sba(i__main__
Pixel
p505
(dp506
S'y'
I919
sS'x'
I919
sS'z'
I919
sg4
I919
sba(i__main__
Pixel
p507
(dp508
S'y'
I959
sS'x'
I959
sS'z'
I959
sg4
I959
sba(i__main__
Pixel
p509
(dp510
S'y'
I384
sS'x'
I384
sS'z'
I384
sg4
I384
sba(i__main__
Pixel
p511
(dp512
S'y'
I1114
sS'x'
I1114
sS'z'
I1114
sg4
I1114
sba(i__main__
Pixel
p513
(dp514
S'y'
I75
sS'x'
I75
sS'z'
I75
sg4
I75
sba(i__main__
Pixel
p515
(dp516
S'y'
I1748
sS'x'
I1748
sS'z'
I1748
sg4
I1748
sba(i__main__
Pixel
p517
(dp518
S'y'
I746
sS'x'
I746
sS'z'
I746
sg4
I746
sba(i__main__
Pixel
p519
(dp520
S'y'
I1157
sS'x'
I1157
sS'z'
I1157
sg4
I1157
sba(i__main__
Pixel
p521
(dp522
S'y'
I1364
sS'x'
I1364
sS'z'
I1364
sg4
I1364
sba(i__main__
Pixel
p523
(dp524
S'y'
I226
sS'x'
I226
sS'z'
I226
sg4
I226
sba(i__main__
Pixel
p525
(dp526
S'y'
I834
sS'x'
I834
sS'z'
I834
sg4
I834
sba(i__main__
Pixel
p527
(dp528
S'y'
I38
sS'x'
I38
sS'z'
I38
sg4
I38
sba(i__main__
Pixel
p529
(dp530
S'y'
I297
sS'x'
I297
sS'z'
I297
sg4
I297
sba(i__main__
Pixel
p531
(dp532
S'y'
I1785
sS'x'
I1785
sS'z'
I1785
sg4
I1785
sba(i__main__
Pixel
p533
(dp534
S'y'
I1679
sS'x'
I1679
sS'z'
I1679
sg4
I1679
sba(i__main__
Pixel
p535
(dp536
S'y'
I869
sS'x'
I869
sS'z'
I869
sg4
I869
sba(i__main__
Pixel
p537
(dp538
S'y'
I548
sS'x'
I548
sS'z'
I548
sg4
I548
sba(i__main__
Pixel
p539
(dp540
S'y'
I839
sS'x'
I839
sS'z'
I839
sg4
I839
sba(i__main__
Pixel
p541
(dp542
S'y'
I1003
sS'x'
I1003
sS'z'
I1003
sg4
I1003
sba(i__main__
Pixel
p543
(dp544
S'y'
I1789
sS'x'
I1789
sS'z'
I1789
sg4
I1789
sba(i__main__
Pixel
p545
(dp546
S'y'
I807
sS'x'
I807
sS'z'
I807
sg4
I807
sba(i__main__
Pixel
p547
(dp548
S'y'
I850
sS'x'
I850
sS'z'
I850
sg4
I850
sba(i__main__
Pixel
p549
(dp550
S'y'
I459
sS'x'
I459
sS'z'
I459
sg4
I459
sba(i__main__
Pixel
p551
(dp552
S'y'
I323
sS'x'
I323
sS'z'
I323
sg4
I323
sba(i__main__
Pixel
p553
(dp554
S'y'
I1928
sS'x'
I1928
sS'z'
I1928
sg4
I1928
sba(i__main__
Pixel
p555
(dp556
S'y'
I450
sS'x'
I450
sS'z'
I450
sg4
I450
sba(i__main__
Pixel
p557
(dp558
S'y'
I897
sS'x'
I897
sS'z'
I897
sg4
I897
sba(i__main__
Pixel
p559
(dp560
S'y'
I1151
sS'x'
I1151
sS'z'
I1151
sg4
I1151
sba(i__main__
Pixel
p561
(dp562
S'y'
I0
sS'x'
I0
sS'z'
I0
sg4
I0
sba(i__main__
Pixel
p563
(dp564
S'y'
I1523
sS'x'
I1523
sS'z'
I1523
sg4
I1523
sba(i__main__
Pixel
p565
(dp566
S'y'
I1614
sS'x'
I1614
sS'z'
I1614
sg4
I1614
sba(i__main__
Pixel
p567
(dp568
S'y'
I740
sS'x'
I740
sS'z'
I740
sg4
I740
sba(i__main__
Pixel
p569
(dp570
S'y'
I1653
sS'x'
I1653
sS'z'
I1653
sg4
I1653
sba(i__main__
Pixel
p571
(dp572
S'y'
I1986
sS'x'
I1986
sS'z'
I1986
sg4
I1986
sba(i__main__
Pixel
p573
(dp574
S'y'
I1228
sS'x'
I1228
sS'z'
I1228
sg4
I1228
sba(i__main__
Pixel
p575
(dp576
S'y'
I61
sS'x'
I61
sS'z'
I61
sg4
I61
sba(i__main__
Pixel
p577
(dp578
S'y'
I1398
sS'x'
I1398
sS'z'
I1398
sg4
I1398
sba(i__main__
Pixel
p579
(dp580
S'y'
I345
sS'x'
I345
sS'z'
I345
sg4
I345
sba(i__main__
Pixel
p581
(dp582
S'y'
I735
sS'x'
I735
sS'z'
I735
sg4
I735
sba(i__main__
Pixel
p583
(dp584
S'y'
I1742
sS'x'
I1742
sS'z'
I1742
sg4
I1742
sba(i__main__
Pixel
p585
(dp586
S'y'
I376
sS'x'
I376
sS'z'
I376
sg4
I376
sba(i__main__
Pixel
p587
(dp588
S'y'
I726
sS'x'
I726
sS'z'
I726
sg4
I726
sba(i__main__
Pixel
p589
(dp590
S'y'
I1403
sS'x'
I1403
sS'z'
I1403
sg4
I1403
sba(i__main__
Pixel
p591
(dp592
S'y'
I1557
sS'x'
I1557
sS'z'
I1557
sg4
I1557
sba(i__main__
Pixel
p593
(dp594
S'y'
I616
sS'x'
I616
sS'z'
I616
sg4
I616
sba(i__main__
Pixel
p595
(dp596
S'y'
I1217
sS'x'
I1217
sS'z'
I1217
sg4
I1217
sba(i__main__
Pixel
p597
(dp598
S'y'
I669
sS'x'
I669
sS'z'
I669
sg4
I669
sba(i__main__
Pixel
p599
(dp600
S'y'
I222
sS'x'
I222
sS'z'
I222
sg4
I222
sba(i__main__
Pixel
p601
(dp602
S'y'
I991
sS'x'
I991
sS'z'
I991
sg4
I991
sba(i__main__
Pixel
p603
(dp604
S'y'
I1858
sS'x'
I1858
sS'z'
I1858
sg4
I1858
sba(i__main__
Pixel
p605
(dp606
S'y'
I35
sS'x'
I35
sS'z'
I35
sg4
I35
sba(i__main__
Pixel
p607
(dp608
S'y'
I185
sS'x'
I185
sS'z'
I185
sg4
I185
sba(i__main__
Pixel
p609
(dp610
S'y'
I504
sS'x'
I504
sS'z'
I504
sg4
I504
sba(i__main__
Pixel
p611
(dp612
S'y'
I1252
sS'x'
I1252
sS'z'
I1252
sg4
I1252
sba(i__main__
Pixel
p613
(dp614
S'y'
I1491
sS'x'
I1491
sS'z'
I1491
sg4
I1491
sba(i__main__
Pixel
p615
(dp616
S'y'
I1989
sS'x'
I1989
sS'z'
I1989
sg4
I1989
sba(i__main__
Pixel
p617
(dp618
S'y'
I1310
sS'x'
I1310
sS'z'
I1310
sg4
I1310
sba(i__main__
Pixel
p619
(dp620
S'y'
I1616
sS'x'
I1616
sS'z'
I1616
sg4
I1616
sba(i__main__
Pixel
p621
(dp622
S'y'
I1645
sS'x'
I1645
sS'z'
I1645
sg4
I1645
sba(i__main__
Pixel
p623
(dp624
S'y'
I1601
sS'x'
I1601
sS'z'
I1601
sg4
I1601
sba(i__main__
Pixel
p625
(dp626
S'y'
I1797
sS'x'
I1797
sS'z'
I1797
sg4
I1797
sba(i__main__
Pixel
p627
(dp628
S'y'
I1712
sS'x'
I1712
sS'z'
I1712
sg4
I1712
sba(i__main__
Pixel
p629
(dp630
S'y'
I1609
sS'x'
I1609
sS'z'
I1609
sg4
I1609
sba(i__main__
Pixel
p631
(dp632
S'y'
I1790
sS'x'
I1790
sS'z'
I1790
sg4
I1790
sba(i__main__
Pixel
p633
(dp634
S'y'
I734
sS'x'
I734
sS'z'
I734
sg4
I734
sba(i__main__
Pixel
p635
(dp636
S'y'
I1891
sS'x'
I1891
sS'z'
I1891
sg4
I1891
sba(i__main__
Pixel
p637
(dp638
S'y'
I1642
sS'x'
I1642
sS'z'
I1642
sg4
I1642
sba(i__main__
Pixel
p639
(dp640
S'y'
I961
sS'x'
I961
sS'z'
I961
sg4
I961
sba(i__main__
Pixel
p641
(dp642
S'y'
I1390
sS'x'
I1390
sS'z'
I1390
sg4
I1390
sba(i__main__
Pixel
p643
(dp644
S'y'
I1313
sS'x'
I1313
sS'z'
I1313
sg4
I1313
sba(i__main__
Pixel
p645
(dp646
S'y'
I1902
sS'x'
I1902
sS'z'
I1902
sg4
I1902
sba(i__main__
Pixel
p647
(dp648
S'y'
I770
sS'x'
I770
sS'z'
I770
sg4
I770
sba(i__main__
Pixel
p649
(dp650
S'y'
I879
sS'x'
I879
sS'z'
I879
sg4
I879
sba(i__main__
Pixel
p651
(dp652
S'y'
I837
sS'x'
I837
sS'z'
I837
sg4
I837
sba(i__main__
Pixel
p653
(dp654
S'y'
I1546
sS'x'
I1546
sS'z'
I1546
sg4
I1546
sba(i__main__
Pixel
p655
(dp656
S'y'
I870
sS'x'
I870
sS'z'
I870
sg4
I870
sba(i__main__
Pixel
p657
(dp658
S'y'
I1998
sS'x'
I1998
sS'z'
I1998
sg4
I1998
sba(i__main__
Pixel
p659
(dp660
S'y'
I1142
sS'x'
I1142
sS'z'
I1142
sg4
I1142
sba(i__main__
Pixel
p661
(dp662
S'y'
I1644
sS'x'
I1644
sS'z'
I1644
sg4
I1644
sba(i__main__
Pixel
p663
(dp664
S'y'
I1879
sS'x'
I1879
sS'z'
I1879
sg4
I1879
sba(i__main__
Pixel
p665
(dp666
S'y'
I327
sS'x'
I327
sS'z'
I327
sg4
I327
sba(i__main__
Pixel
p667
(dp668
S'y'
I343
sS'x'
I343
sS'z'
I343
sg4
I343
sba(i__main__
Pixel
p669
(dp670
S'y'
I1020
sS'x'
I1020
sS'z'
I1020
sg4
I1020
sba(i__main__
Pixel
p671
(dp672
S'y'
I142
sS'x'
I142
sS'z'
I142
sg4
I142
sba(i__main__
Pixel
p673
(dp674
S'y'
I999
sS'x'
I999
sS'z'
I999
sg4
I999
sba(i__main__
Pixel
p675
(dp676
S'y'
I706
sS'x'
I706
sS'z'
I706
sg4
I706
sba(i__main__
Pixel
p677
(dp678
S'y'
I1493
sS'x'
I1493
sS'z'
I1493
sg4
I1493
sba(i__main__
Pixel
p679
(dp680
S'y'
I1539
sS'x'
I1539
sS'z'
I1539
sg4
I1539
sba(i__main__
Pixel
p681
(dp682
S'y'
I1346
sS'x'
I1346
sS'z'
I1346
sg4
I1346
sba(i__main__
Pixel
p683
(dp684
S'y'
I253
sS'x'
I253
sS'z'
I253
sg4
I253
sba(i__main__
Pixel
p685
(dp686
S'y'
I1739
sS'x'
I1739
sS'z'
I1739
sg4
I1739
sba(i__main__
Pixel
p687
(dp688
S'y'
I1147
sS'x'
I1147
sS'z'
I1147
sg4
I1147
sba(i__main__
Pixel
p689
(dp690
S'y'
I981
sS'x'
I981
sS'z'
I981
sg4
I981
sba(i__main__
Pixel
p691
(dp692
S'y'
I1868
sS'x'
I1868
sS'z'
I1868
sg4
I1868
sba(i__main__
Pixel
p693
(dp694
S'y'
I778
sS'x'
I778
sS'z'
I778
sg4
I778
sba(i__main__
Pixel
p695
(dp696
S'y'
I703
sS'x'
I703
sS'z'
I703
sg4
I703
sba(i__main__
Pixel
p697
(dp698
S'y'
I197
sS'x'
I197
sS'z'
I197
sg4
I197
sba(i__main__
Pixel
p699
(dp700
S'y'
I1296
sS'x'
I1296
sS'z'
I1296
sg4
I1296
sba(i__main__
Pixel
p701
(dp702
S'y'
I1335
sS'x'
I1335
sS'z'
I1335
sg4
I1335
sba(i__main__
Pixel
p703
(dp704
S'y'
I347
sS'x'
I347
sS'z'
I347
sg4
I347
sba(i__main__
Pixel
p705
(dp706
S'y'
I189
sS'x'
I189
sS'z'
I189
sg4
I189
sba(i__main__
Pixel
p707
(dp708
S'y'
I1478
sS'x'
I1478
sS'z'
I1478
sg4
I1478
sba(i__main__
Pixel
p709
(dp710
S'y'
I337
sS'x'
I337
sS'z'
I337
sg4
I337
sba(i__main__
Pixel
p711
(dp712
S'y'
I1659
sS'x'
I1659
sS'z'
I1659
sg4
I1659
sba(i__main__
Pixel
p713
(dp714
S'y'
I1675
sS'x'
I1675
sS'z'
I1675
sg4
I1675
sba(i__main__
Pixel
p715
(dp716
S'y'
I1830
sS'x'
I1830
sS'z'
I1830
sg4
I1830
sba(i__main__
Pixel
p717
(dp718
S'y'
I1993
sS'x'
I1993
sS'z'
I1993
sg4
I1993
sba(i__main__
Pixel
p719
(dp720
S'y'
I1878
sS'x'
I1878
sS'z'
I1878
sg4
I1878
sba(i__main__
Pixel
p721
(dp722
S'y'
I351
sS'x'
I351
sS'z'
I351
sg4
I351
sba(i__main__
Pixel
p723
(dp724
S'y'
I1513
sS'x'
I1513
sS'z'
I1513
sg4
I1513
sba(i__main__
Pixel
p725
(dp726
S'y'
I1207
sS'x'
I1207
sS'z'
I1207
sg4
I1207
sba(i__main__
Pixel
p727
(dp728
S'y'
I1292
sS'x'
I1292
sS'z'
I1292
sg4
I1292
sba(i__main__
Pixel
p729
(dp730
S'y'
I1922
sS'x'
I1922
sS'z'
I1922
sg4
I1922
sba(i__main__
Pixel
p731
(dp732
S'y'
I409
sS'x'
I409
sS'z'
I409
sg4
I409
sba(i__main__
Pixel
p733
(dp734
S'y'
I68
sS'x'
I68
sS'z'
I68
sg4
I68
sba(i__main__
Pixel
p735
(dp736
S'y'
I1486
sS'x'
I1486
sS'z'
I1486
sg4
I1486
sba(i__main__
Pixel
p737
(dp738
S'y'
I277
sS'x'
I277
sS'z'
I277
sg4
I277
sba(i__main__
Pixel
p739
(dp740
S'y'
I83
sS'x'
I83
sS'z'
I83
sg4
I83
sba(i__main__
Pixel
p741
(dp742
S'y'
I1483
sS'x'
I1483
sS'z'
I1483
sg4
I1483
sba(i__main__
Pixel
p743
(dp744
S'y'
I54
sS'x'
I54
sS'z'
I54
sg4
I54
sba(i__main__
Pixel
p745
(dp746
S'y'
I1709
sS'x'
I1709
sS'z'
I1709
sg4
I1709
sba(i__main__
Pixel
p747
(dp748
S'y'
I1077
sS'x'
I1077
sS'z'
I1077
sg4
I1077
sba(i__main__
Pixel
p749
(dp750
S'y'
I1727
sS'x'
I1727
sS'z'
I1727
sg4
I1727
sba(i__main__
Pixel
p751
(dp752
S'y'
I1134
sS'x'
I1134
sS'z'
I1134
sg4
I1134
sba(i__main__
Pixel
p753
(dp754
S'y'
I1869
sS'x'
I1869
sS'z'
I1869
sg4
I1869
sba(i__main__
Pixel
p755
(dp756
S'y'
I736
sS'x'
I736
sS'z'
I736
sg4
I736
sba(i__main__
Pixel
p757
(dp758
S'y'
I1603
sS'x'
I1603
sS'z'
I1603
sg4
I1603
sba(i__main__
Pixel
p759
(dp760
S'y'
I1784
sS'x'
I1784
sS'z'
I1784
sg4
I1784
sba(i__main__
Pixel
p761
(dp762
S'y'
I1421
sS'x'
I1421
sS'z'
I1421
sg4
I1421
sba(i__main__
Pixel
p763
(dp764
S'y'
I1344
sS'x'
I1344
sS'z'
I1344
sg4
I1344
sba(i__main__
Pixel
p765
(dp766
S'y'
I1746
sS'x'
I1746
sS'z'
I1746
sg4
I1746
sba(i__main__
Pixel
p767
(dp768
S'y'
I618
sS'x'
I618
sS'z'
I618
sg4
I618
sba(i__main__
Pixel
p769
(dp770
S'y'
I1680
sS'x'
I1680
sS'z'
I1680
sg4
I1680
sba(i__main__
Pixel
p771
(dp772
S'y'
I1571
sS'x'
I1571
sS'z'
I1571
sg4
I1571
sba(i__main__
Pixel
p773
(dp774
S'y'
I1397
sS'x'
I1397
sS'z'
I1397
sg4
I1397
sba(i__main__
Pixel
p775
(dp776
S'y'
I601
sS'x'
I601
sS'z'
I601
sg4
I601
sba(i__main__
Pixel
p777
(dp778
S'y'
I678
sS'x'
I678
sS'z'
I678
sg4
I678
sba(i__main__
Pixel
p779
(dp780
S'y'
I486
sS'x'
I486
sS'z'
I486
sg4
I486
sba(i__main__
Pixel
p781
(dp782
S'y'
I539
sS'x'
I539
sS'z'
I539
sg4
I539
sba(i__main__
Pixel
p783
(dp784
S'y'
I1622
sS'x'
I1622
sS'z'
I1622
sg4
I1622
sba(i__main__
Pixel
p785
(dp786
S'y'
I903
sS'x'
I903
sS'z'
I903
sg4
I903
sba(i__main__
Pixel
p787
(dp788
S'y'
I1558
sS'x'
I1558
sS'z'
I1558
sg4
I1558
sba(i__main__
Pixel
p789
(dp790
S'y'
I1722
sS'x'
I1722
sS'z'
I1722
sg4
I1722
sba(i__main__
Pixel
p791
(dp792
S'y'
I359
sS'x'
I359
sS'z'
I359
sg4
I359
sba(i__main__
Pixel
p793
(dp794
S'y'
I1093
sS'x'
I1093
sS'z'
I1093
sg4
I1093
sba(i__main__
Pixel
p795
(dp796
S'y'
I872
sS'x'
I872
sS'z'
I872
sg4
I872
sba(i__main__
Pixel
p797
(dp798
S'y'
I180
sS'x'
I180
sS'z'
I180
sg4
I180
sba(i__main__
Pixel
p799
(dp800
S'y'
I18
sS'x'
I18
sS'z'
I18
sg4
I18
sba(i__main__
Pixel
p801
(dp802
S'y'
I1128
sS'x'
I1128
sS'z'
I1128
sg4
I1128
sba(i__main__
Pixel
p803
(dp804
S'y'
I1886
sS'x'
I1886
sS'z'
I1886
sg4
I1886
sba(i__main__
Pixel
p805
(dp806
S'y'
I1039
sS'x'
I1039
sS'z'
I1039
sg4
I1039
sba(i__main__
Pixel
p807
(dp808
S'y'
I1684
sS'x'
I1684
sS'z'
I1684
sg4
I1684
sba(i__main__
Pixel
p809
(dp810
S'y'
I50
sS'x'
I50
sS'z'
I50
sg4
I50
sba(i__main__
Pixel
p811
(dp812
S'y'
I452
sS'x'
I452
sS'z'
I452
sg4
I452
sba(i__main__
Pixel
p813
(dp814
S'y'
I1631
sS'x'
I1631
sS'z'
I1631
sg4
I1631
sba(i__main__
Pixel
p815
(dp816
S'y'
I440
sS'x'
I440
sS'z'
I440
sg4
I440
sba(i__main__
Pixel
p817
(dp818
S'y'
I1637
sS'x'
I1637
sS'z'
I1637
sg4
I1637
sba(i__main__
Pixel
p819
(dp820
S'y'
I660
sS'x'
I660
sS'z'
I660
sg4
I660
sba(i__main__
Pixel
p821
(dp822
S'y'
I1192
sS'x'
I1192
sS'z'
I1192
sg4
I1192
sba(i__main__
Pixel
p823
(dp824
S'y'
I356
sS'x'
I356
sS'z'
I356
sg4
I356
sba(i__main__
Pixel
p825
(dp826
S'y'
I1299
sS'x'
I1299
sS'z'
I1299
sg4
I1299
sba(i__main__
Pixel
p827
(dp828
S'y'
I896
sS'x'
I896
sS'z'
I896
sg4
I896
sba(i__main__
Pixel
p829
(dp830
S'y'
I37
sS'x'
I37
sS'z'
I37
sg4
I37
sba(i__main__
Pixel
p831
(dp832
S'y'
I691
sS'x'
I691
sS'z'
I691
sg4
I691
sba(i__main__
Pixel
p833
(dp834
S'y'
I139
sS'x'
I139
sS'z'
I139
sg4
I139
sba(i__main__
Pixel
p835
(dp836
S'y'
I328
sS'x'
I328
sS'z'
I328
sg4
I328
sba(i__main__
Pixel
p837
(dp838
S'y'
I465
sS'x'
I465
sS'z'
I465
sg4
I465
sba(i__main__
Pixel
p839
(dp840
S'y'
I762
sS'x'
I762
sS'z'
I762
sg4
I762
sba(i__main__
Pixel
p841
(dp842
S'y'
I1505
sS'x'
I1505
sS'z'
I1505
sg4
I1505
sba(i__main__
Pixel
p843
(dp844
S'y'
I760
sS'x'
I760
sS'z'
I760
sg4
I760
sba(i__main__
Pixel
p845
(dp846
S'y'
I1937
sS'x'
I1937
sS'z'
I1937
sg4
I1937
sba(i__main__
Pixel
p847
(dp848
S'y'
I1152
sS'x'
I1152
sS'z'
I1152
sg4
I1152
sba(i__main__
Pixel
p849
(dp850
S'y'
I1829
sS'x'
I1829
sS'z'
I1829
sg4
I1829
sba(i__main__
Pixel
p851
(dp852
S'y'
I928
sS'x'
I928
sS'z'
I928
sg4
I928
sba(i__main__
Pixel
p853
(dp854
S'y'
I1307
sS'x'
I1307
sS'z'
I1307
sg4
I1307
sba(i__main__
Pixel
p855
(dp856
S'y'
I1221
sS'x'
I1221
sS'z'
I1221
sg4
I1221
sba(i__main__
Pixel
p857
(dp858
S'y'
I1438
sS'x'
I1438
sS'z'
I1438
sg4
I1438
sba(i__main__
Pixel
p859
(dp860
S'y'
I1897
sS'x'
I1897
sS'z'
I1897
sg4
I1897
sba(i__main__
Pixel
p861
(dp862
S'y'
I994
sS'x'
I994
sS'z'
I994
sg4
I994
sba(i__main__
Pixel
p863
(dp864
S'y'
I426
sS'x'
I426
sS'z'
I426
sg4
I426
sba(i__main__
Pixel
p865
(dp866
S'y'
I1856
sS'x'
I1856
sS'z'
I1856
sg4
I1856
sba(i__main__
Pixel
p867
(dp868
S'y'
I1196
sS'x'
I1196
sS'z'
I1196
sg4
I1196
sba(i__main__
Pixel
p869
(dp870
S'y'
I641
sS'x'
I641
sS'z'
I641
sg4
I641
sba(i__main__
Pixel
p871
(dp872
S'y'
I64
sS'x'
I64
sS'z'
I64
sg4
I64
sba(i__main__
Pixel
p873
(dp874
S'y'
I455
sS'x'
I455
sS'z'
I455
sg4
I455
sba(i__main__
Pixel
p875
(dp876
S'y'
I219
sS'x'
I219
sS'z'
I219
sg4
I219
sba(i__main__
Pixel
p877
(dp878
S'y'
I1884
sS'x'
I1884
sS'z'
I1884
sg4
I1884
sba(i__main__
Pixel
p879
(dp880
S'y'
I286
sS'x'
I286
sS'z'
I286
sg4
I286
sba(i__main__
Pixel
p881
(dp882
S'y'
I484
sS'x'
I484
sS'z'
I484
sg4
I484
sba(i__main__
Pixel
p883
(dp884
S'y'
I425
sS'x'
I425
sS'z'
I425
sg4
I425
sba(i__main__
Pixel
p885
(dp886
S'y'
I699
sS'x'
I699
sS'z'
I699
sg4
I699
sba(i__main__
Pixel
p887
(dp888
S'y'
I1510
sS'x'
I1510
sS'z'
I1510
sg4
I1510
sba(i__main__
Pixel
p889
(dp890
S'y'
I1808
sS'x'
I1808
sS'z'
I1808
sg4
I1808
sba(i__main__
Pixel
p891
(dp892
S'y'
I1383
sS'x'
I1383
sS'z'
I1383
sg4
I1383
sba(i__main__
Pixel
p893
(dp894
S'y'
I609
sS'x'
I609
sS'z'
I609
sg4
I609
sba(i__main__
Pixel
p895
(dp896
S'y'
I12
sS'x'
I12
sS'z'
I12
sg4
I12
sba(i__main__
Pixel
p897
(dp898
S'y'
I1968
sS'x'
I1968
sS'z'
I1968
sg4
I1968
sba(i__main__
Pixel
p899
(dp900
S'y'
I131
sS'x'
I131
sS'z'
I131
sg4
I131
sba(i__main__
Pixel
p901
(dp902
S'y'
I1894
sS'x'
I1894
sS'z'
I1894
sg4
I1894
sba(i__main__
Pixel
p903
(dp904
S'y'
I808
sS'x'
I808
sS'z'
I808
sg4
I808
sba(i__main__
Pixel
p905
(dp906
S'y'
I119
sS'x'
I119
sS'z'
I119
sg4
I119
sba(i__main__
Pixel
p907
(dp908
S'y'
I99
sS'x'
I99
sS'z'
I99
sg4
I99
sba(i__main__
Pixel
p909
(dp910
S'y'
I16
sS'x'
I16
sS'z'
I16
sg4
I16
sba(i__main__
Pixel
p911
(dp912
S'y'
I65
sS'x'
I65
sS'z'
I65
sg4
I65
sba(i__main__
Pixel
p913
(dp914
S'y'
I782
sS'x'
I782
sS'z'
I782
sg4
I782
sba(i__main__
Pixel
p915
(dp916
S'y'
I899
sS'x'
I899
sS'z'
I899
sg4
I899
sba(i__main__
Pixel
p917
(dp918
S'y'
I281
sS'x'
I281
sS'z'
I281
sg4
I281
sba(i__main__
Pixel
p919
(dp920
S'y'
I979
sS'x'
I979
sS'z'
I979
sg4
I979
sba(i__main__
Pixel
p921
(dp922
S'y'
I1500
sS'x'
I1500
sS'z'
I1500
sg4
I1500
sba(i__main__
Pixel
p923
(dp924
S'y'
I1944
sS'x'
I1944
sS'z'
I1944
sg4
I1944
sba(i__main__
Pixel
p925
(dp926
S'y'
I769
sS'x'
I769
sS'z'
I769
sg4
I769
sba(i__main__
Pixel
p927
(dp928
S'y'
I650
sS'x'
I650
sS'z'
I650
sg4
I650
sba(i__main__
Pixel
p929
(dp930
S'y'
I1925
sS'x'
I1925
sS'z'
I1925
sg4
I1925
sba(i__main__
Pixel
p931
(dp932
S'y'
I661
sS'x'
I661
sS'z'
I661
sg4
I661
sba(i__main__
Pixel
p933
(dp934
S'y'
I585
sS'x'
I585
sS'z'
I585
sg4
I585
sba(i__main__
Pixel
p935
(dp936
S'y'
I603
sS'x'
I603
sS'z'
I603
sg4
I603
sba(i__main__
Pixel
p937
(dp938
S'y'
I1242
sS'x'
I1242
sS'z'
I1242
sg4
I1242
sba(i__main__
Pixel
p939
(dp940
S'y'
I802
sS'x'
I802
sS'z'
I802
sg4
I802
sba(i__main__
Pixel
p941
(dp942
S'y'
I1514
sS'x'
I1514
sS'z'
I1514
sg4
I1514
sba(i__main__
Pixel
p943
(dp944
S'y'
I97
sS'x'
I97
sS'z'
I97
sg4
I97
sba(i__main__
Pixel
p945
(dp946
S'y'
I1113
sS'x'
I1113
sS'z'
I1113
sg4
I1113
sba(i__main__
Pixel
p947
(dp948
S'y'
I971
sS'x'
I971
sS'z'
I971
sg4
I971
sba(i__main__
Pixel
p949
(dp950
S'y'
I1565
sS'x'
I1565
sS'z'
I1565
sg4
I1565
sba(i__main__
Pixel
p951
(dp952
S'y'
I1450
sS'x'
I1450
sS'z'
I1450
sg4
I1450
sba(i__main__
Pixel
p953
(dp954
S'y'
I1885
sS'x'
I1885
sS'z'
I1885
sg4
I1885
sba(i__main__
Pixel
p955
(dp956
S'y'
I96
sS'x'
I96
sS'z'
I96
sg4
I96
sba(i__main__
Pixel
p957
(dp958
S'y'
I264
sS'x'
I264
sS'z'
I264
sg4
I264
sba(i__main__
Pixel
p959
(dp960
S'y'
I1353
sS'x'
I1353
sS'z'
I1353
sg4
I1353
sba(i__main__
Pixel
p961
(dp962
S'y'
I494
sS'x'
I494
sS'z'
I494
sg4
I494
sba(i__main__
Pixel
p963
(dp964
S'y'
I1270
sS'x'
I1270
sS'z'
I1270
sg4
I1270
sba(i__main__
Pixel
p965
(dp966
S'y'
I203
sS'x'
I203
sS'z'
I203
sg4
I203
sba(i__main__
Pixel
p967
(dp968
S'y'
I1321
sS'x'
I1321
sS'z'
I1321
sg4
I1321
sba(i__main__
Pixel
p969
(dp970
S'y'
I1553
sS'x'
I1553
sS'z'
I1553
sg4
I1553
sba(i__main__
Pixel
p971
(dp972
S'y'
I410
sS'x'
I410
sS'z'
I410
sg4
I410
sba(i__main__
Pixel
p973
(dp974
S'y'
I298
sS'x'
I298
sS'z'
I298
sg4
I298
sba(i__main__
Pixel
p975
(dp976
S'y'
I1827
sS'x'
I1827
sS'z'
I1827
sg4
I1827
sba(i__main__
Pixel
p977
(dp978
S'y'
I234
sS'x'
I234
sS'z'
I234
sg4
I234
sba(i__main__
Pixel
p979
(dp980
S'y'
I676
sS'x'
I676
sS'z'
I676
sg4
I676
sba(i__main__
Pixel
p981
(dp982
S'y'
I24
sS'x'
I24
sS'z'
I24
sg4
I24
sba(i__main__
Pixel
p983
(dp984
S'y'
I36
sS'x'
I36
sS'z'
I36
sg4
I36
sba(i__main__
Pixel
p985
(dp986
S'y'
I174
sS'x'
I174
sS'z'
I174
sg4
I174
sba(i__main__
Pixel
p987
(dp988
S'y'
I1316
sS'x'
I1316
sS'z'
I1316
sg4
I1316
sba(i__main__
Pixel
p989
(dp990
S'y'
I1488
sS'x'
I1488
sS'z'
I1488
sg4
I1488
sba(i__main__
Pixel
p991
(dp992
S'y'
I1689
sS'x'
I1689
sS'z'
I1689
sg4
I1689
sba(i__main__
Pixel
p993
(dp994
S'y'
I576
sS'x'
I576
sS'z'
I576
sg4
I576
sba(i__main__
Pixel
p995
(dp996
S'y'
I1855
sS'x'
I1855
sS'z'
I1855
sg4
I1855
sba(i__main__
Pixel
p997
(dp998
S'y'
I1305
sS'x'
I1305
sS'z'
I1305
sg4
I1305
sba(i__main__
Pixel
p999
(dp1000
S'y'
I1802
sS'x'
I1802
sS'z'
I1802
sg4
I1802
sba(i__main__
Pixel
p1001
(dp1002
S'y'
I829
sS'x'
I829
sS'z'
I829
sg4
I829
sba(i__main__
Pixel
p1003
(dp1004
S'y'
I626
sS'x'
I626
sS'z'
I626
sg4
I626
sba(i__main__
Pixel
p1005
(dp1006
S'y'
I1714
sS'x'
I1714
sS'z'
I1714
sg4
I1714
sba(i__main__
Pixel
p1007
(dp1008
S'y'
I317
sS'x'
I317
sS'z'
I317
sg4
I317
sba(i__main__
Pixel
p1009
(dp1010
S'y'
I1022
sS'x'
I1022
sS'z'
I1022
sg4
I1022
sba(i__main__
Pixel
p1011
(dp1012
S'y'
I1466
sS'x'
I1466
sS'z'
I1466
sg4
I1466
sba(i__main__
Pixel
p1013
(dp1014
S'y'
I1613
sS'x'
I1613
sS'z'
I1613
sg4
I1613
sba(i__main__
Pixel
p1015
(dp1016
S'y'
I1115
sS'x'
I1115
sS'z'
I1115
sg4
I1115
sba(i__main__
Pixel
p1017
(dp1018
S'y'
I1048
sS'x'
I1048
sS'z'
I1048
sg4
I1048
sba(i__main__
Pixel
p1019
(dp1020
S'y'
I236
sS'x'
I236
sS'z'
I236
sg4
I236
sba(i__main__
Pixel
p1021
(dp1022
S'y'
I1691
sS'x'
I1691
sS'z'
I1691
sg4
I1691
sba(i__main__
Pixel
p1023
(dp1024
S'y'
I1055
sS'x'
I1055
sS'z'
I1055
sg4
I1055
sba(i__main__
Pixel
p1025
(dp1026
S'y'
I373
sS'x'
I373
sS'z'
I373
sg4
I373
sba(i__main__
Pixel
p1027
(dp1028
S'y'
I1451
sS'x'
I1451
sS'z'
I1451
sg4
I1451
sba(i__main__
Pixel
p1029
(dp1030
S'y'
I830
sS'x'
I830
sS'z'
I830
sg4
I830
sba(i__main__
Pixel
p1031
(dp1032
S'y'
I524
sS'x'
I524
sS'z'
I524
sg4
I524
sba(i__main__
Pixel
p1033
(dp1034
S'y'
I322
sS'x'
I322
sS'z'
I322
sg4
I322
sba(i__main__
Pixel
p1035
(dp1036
S'y'
I25
sS'x'
I25
sS'z'
I25
sg4
I25
sba(i__main__
Pixel
p1037
(dp1038
S'y'
I1945
sS'x'
I1945
sS'z'
I1945
sg4
I1945
sba(i__main__
Pixel
p1039
(dp1040
S'y'
I1870
sS'x'
I1870
sS'z'
I1870
sg4
I1870
sba(i__main__
Pixel
p1041
(dp1042
S'y'
I1260
sS'x'
I1260
sS'z'
I1260
sg4
I1260
sba(i__main__
Pixel
p1043
(dp1044
S'y'
I1086
sS'x'
I1086
sS'z'
I1086
sg4
I1086
sba(i__main__
Pixel
p1045
(dp1046
S'y'
I1404
sS'x'
I1404
sS'z'
I1404
sg4
I1404
sba(i__main__
Pixel
p1047
(dp1048
S'y'
I804
sS'x'
I804
sS'z'
I804
sg4
I804
sba(i__main__
Pixel
p1049
(dp1050
S'y'
I1200
sS'x'
I1200
sS'z'
I1200
sg4
I1200
sba(i__main__
Pixel
p1051
(dp1052
S'y'
I1720
sS'x'
I1720
sS'z'
I1720
sg4
I1720
sba(i__main__
Pixel
p1053
(dp1054
S'y'
I1340
sS'x'
I1340
sS'z'
I1340
sg4
I1340
sba(i__main__
Pixel
p1055
(dp1056
S'y'
I1439
sS'x'
I1439
sS'z'
I1439
sg4
I1439
sba(i__main__
Pixel
p1057
(dp1058
S'y'
I110
sS'x'
I110
sS'z'
I110
sg4
I110
sba(i__main__
Pixel
p1059
(dp1060
S'y'
I550
sS'x'
I550
sS'z'
I550
sg4
I550
sba(i__main__
Pixel
p1061
(dp1062
S'y'
I280
sS'x'
I280
sS'z'
I280
sg4
I280
sba(i__main__
Pixel
p1063
(dp1064
S'y'
I48
sS'x'
I48
sS'z'
I48
sg4
I48
sba(i__main__
Pixel
p1065
(dp1066
S'y'
I1648
sS'x'
I1648
sS'z'
I1648
sg4
I1648
sba(i__main__
Pixel
p1067
(dp1068
S'y'
I259
sS'x'
I259
sS'z'
I259
sg4
I259
sba(i__main__
Pixel
p1069
(dp1070
S'y'
I1683
sS'x'
I1683
sS'z'
I1683
sg4
I1683
sba(i__main__
Pixel
p1071
(dp1072
S'y'
I1472
sS'x'
I1472
sS'z'
I1472
sg4
I1472
sba(i__main__
Pixel
p1073
(dp1074
S'y'
I1248
sS'x'
I1248
sS'z'
I1248
sg4
I1248
sba(i__main__
Pixel
p1075
(dp1076
S'y'
I624
sS'x'
I624
sS'z'
I624
sg4
I624
sba(i__main__
Pixel
p1077
(dp1078
S'y'
I433
sS'x'
I433
sS'z'
I433
sg4
I433
sba(i__main__
Pixel
p1079
(dp1080
S'y'
I154
sS'x'
I154
sS'z'
I154
sg4
I154
sba(i__main__
Pixel
p1081
(dp1082
S'y'
I593
sS'x'
I593
sS'z'
I593
sg4
I593
sba(i__main__
Pixel
p1083
(dp1084
S'y'
I1379
sS'x'
I1379
sS'z'
I1379
sg4
I1379
sba(i__main__
Pixel
p1085
(dp1086
S'y'
I352
sS'x'
I352
sS'z'
I352
sg4
I352
sba(i__main__
Pixel
p1087
(dp1088
S'y'
I11
sS'x'
I11
sS'z'
I11
sg4
I11
sba(i__main__
Pixel
p1089
(dp1090
S'y'
I1108
sS'x'
I1108
sS'z'
I1108
sg4
I1108
sba(i__main__
Pixel
p1091
(dp1092
S'y'
I1994
sS'x'
I1994
sS'z'
I1994
sg4
I1994
sba(i__main__
Pixel
p1093
(dp1094
S'y'
I255
sS'x'
I255
sS'z'
I255
sg4
I255
sba(i__main__
Pixel
p1095
(dp1096
S'y'
I1234
sS'x'
I1234
sS'z'
I1234
sg4
I1234
sba(i__main__
Pixel
p1097
(dp1098
S'y'
I1502
sS'x'
I1502
sS'z'
I1502
sg4
I1502
sba(i__main__
Pixel
p1099
(dp1100
S'y'
I1662
sS'x'
I1662
sS'z'
I1662
sg4
I1662
sba(i__main__
Pixel
p1101
(dp1102
S'y'
I1517
sS'x'
I1517
sS'z'
I1517
sg4
I1517
sba(i__main__
Pixel
p1103
(dp1104
S'y'
I98
sS'x'
I98
sS'z'
I98
sg4
I98
sba(i__main__
Pixel
p1105
(dp1106
S'y'
I845
sS'x'
I845
sS'z'
I845
sg4
I845
sba(i__main__
Pixel
p1107
(dp1108
S'y'
I758
sS'x'
I758
sS'z'
I758
sg4
I758
sba(i__main__
Pixel
p1109
(dp1110
S'y'
I542
sS'x'
I542
sS'z'
I542
sg4
I542
sba(i__main__
Pixel
p1111
(dp1112
S'y'
I1584
sS'x'
I1584
sS'z'
I1584
sg4
I1584
sba(i__main__
Pixel
p1113
(dp1114
S'y'
I1024
sS'x'
I1024
sS'z'
I1024
sg4
I1024
sba(i__main__
Pixel
p1115
(dp1116
S'y'
I125
sS'x'
I125
sS'z'
I125
sg4
I125
sba(i__main__
Pixel
p1117
(dp1118
S'y'
I26
sS'x'
I26
sS'z'
I26
sg4
I26
sba(i__main__
Pixel
p1119
(dp1120
S'y'
I1119
sS'x'
I1119
sS'z'
I1119
sg4
I1119
sba(i__main__
Pixel
p1121
(dp1122
S'y'
I1996
sS'x'
I1996
sS'z'
I1996
sg4
I1996
sba(i__main__
Pixel
p1123
(dp1124
S'y'
I341
sS'x'
I341
sS'z'
I341
sg4
I341
sba(i__main__
Pixel
p1125
(dp1126
S'y'
I1425
sS'x'
I1425
sS'z'
I1425
sg4
I1425
sba(i__main__
Pixel
p1127
(dp1128
S'y'
I314
sS'x'
I314
sS'z'
I314
sg4
I314
sba(i__main__
Pixel
p1129
(dp1130
S'y'
I1420
sS'x'
I1420
sS'z'
I1420
sg4
I1420
sba(i__main__
Pixel
p1131
(dp1132
S'y'
I628
sS'x'
I628
sS'z'
I628
sg4
I628
sba(i__main__
Pixel
p1133
(dp1134
S'y'
I473
sS'x'
I473
sS'z'
I473
sg4
I473
sba(i__main__
Pixel
p1135
(dp1136
S'y'
I137
sS'x'
I137
sS'z'
I137
sg4
I137
sba(i__main__
Pixel
p1137
(dp1138
S'y'
I1126
sS'x'
I1126
sS'z'
I1126
sg4
I1126
sba(i__main__
Pixel
p1139
(dp1140
S'y'
I973
sS'x'
I973
sS'z'
I973
sg4
I973
sba(i__main__
Pixel
p1141
(dp1142
S'y'
I1782
sS'x'
I1782
sS'z'
I1782
sg4
I1782
sba(i__main__
Pixel
p1143
(dp1144
S'y'
I904
sS'x'
I904
sS'z'
I904
sg4
I904
sba(i__main__
Pixel
p1145
(dp1146
S'y'
I229
sS'x'
I229
sS'z'
I229
sg4
I229
sba(i__main__
Pixel
p1147
(dp1148
S'y'
I1411
sS'x'
I1411
sS'z'
I1411
sg4
I1411
sba(i__main__
Pixel
p1149
(dp1150
S'y'
I136
sS'x'
I136
sS'z'
I136
sg4
I136
sba(i__main__
Pixel
p1151
(dp1152
S'y'
I632
sS'x'
I632
sS'z'
I632
sg4
I632
sba(i__main__
Pixel
p1153
(dp1154
S'y'
I1939
sS'x'
I1939
sS'z'
I1939
sg4
I1939
sba(i__main__
Pixel
p1155
(dp1156
S'y'
I729
sS'x'
I729
sS'z'
I729
sg4
I729
sba(i__main__
Pixel
p1157
(dp1158
S'y'
I956
sS'x'
I956
sS'z'
I956
sg4
I956
sba(i__main__
Pixel
p1159
(dp1160
S'y'
I469
sS'x'
I469
sS'z'
I469
sg4
I469
sba(i__main__
Pixel
p1161
(dp1162
S'y'
I445
sS'x'
I445
sS'z'
I445
sg4
I445
sba(i__main__
Pixel
p1163
(dp1164
S'y'
I116
sS'x'
I116
sS'z'
I116
sg4
I116
sba(i__main__
Pixel
p1165
(dp1166
S'y'
I1423
sS'x'
I1423
sS'z'
I1423
sg4
I1423
sba(i__main__
Pixel
p1167
(dp1168
S'y'
I809
sS'x'
I809
sS'z'
I809
sg4
I809
sba(i__main__
Pixel
p1169
(dp1170
S'y'
I1148
sS'x'
I1148
sS'z'
I1148
sg4
I1148
sba(i__main__
Pixel
p1171
(dp1172
S'y'
I1900
sS'x'
I1900
sS'z'
I1900
sg4
I1900
sba(i__main__
Pixel
p1173
(dp1174
S'y'
I247
sS'x'
I247
sS'z'
I247
sg4
I247
sba(i__main__
Pixel
p1175
(dp1176
S'y'
I511
sS'x'
I511
sS'z'
I511
sg4
I511
sba(i__main__
Pixel
p1177
(dp1178
S'y'
I1548
sS'x'
I1548
sS'z'
I1548
sg4
I1548
sba(i__main__
Pixel
p1179
(dp1180
S'y'
I195
sS'x'
I195
sS'z'
I195
sg4
I195
sba(i__main__
Pixel
p1181
(dp1182
S'y'
I335
sS'x'
I335
sS'z'
I335
sg4
I335
sba(i__main__
Pixel
p1183
(dp1184
S'y'
I510
sS'x'
I510
sS'z'
I510
sg4
I510
sba(i__main__
Pixel
p1185
(dp1186
S'y'
I1627
sS'x'
I1627
sS'z'
I1627
sg4
I1627
sba(i__main__
Pixel
p1187
(dp1188
S'y'
I1890
sS'x'
I1890
sS'z'
I1890
sg4
I1890
sba(i__main__
Pixel
p1189
(dp1190
S'y'
I908
sS'x'
I908
sS'z'
I908
sg4
I908
sba(i__main__
Pixel
p1191
(dp1192
S'y'
I970
sS'x'
I970
sS'z'
I970
sg4
I970
sba(i__main__
Pixel
p1193
(dp1194
S'y'
I997
sS'x'
I997
sS'z'
I997
sg4
I997
sba(i__main__
Pixel
p1195
(dp1196
S'y'
I1203
sS'x'
I1203
sS'z'
I1203
sg4
I1203
sba(i__main__
Pixel
p1197
(dp1198
S'y'
I1009
sS'x'
I1009
sS'z'
I1009
sg4
I1009
sba(i__main__
Pixel
p1199
(dp1200
S'y'
I701
sS'x'
I701
sS'z'
I701
sg4
I701
sba(i__main__
Pixel
p1201
(dp1202
S'y'
I170
sS'x'
I170
sS'z'
I170
sg4
I170
sba(i__main__
Pixel
p1203
(dp1204
S'y'
I1498
sS'x'
I1498
sS'z'
I1498
sg4
I1498
sba(i__main__
Pixel
p1205
(dp1206
S'y'
I200
sS'x'
I200
sS'z'
I200
sg4
I200
sba(i__main__
Pixel
p1207
(dp1208
S'y'
I1236
sS'x'
I1236
sS'z'
I1236
sg4
I1236
sba(i__main__
Pixel
p1209
(dp1210
S'y'
I986
sS'x'
I986
sS'z'
I986
sg4
I986
sba(i__main__
Pixel
p1211
(dp1212
S'y'
I569
sS'x'
I569
sS'z'
I569
sg4
I569
sba(i__main__
Pixel
p1213
(dp1214
S'y'
I1499
sS'x'
I1499
sS'z'
I1499
sg4
I1499
sba(i__main__
Pixel
p1215
(dp1216
S'y'
I493
sS'x'
I493
sS'z'
I493
sg4
I493
sba(i__main__
Pixel
p1217
(dp1218
S'y'
I374
sS'x'
I374
sS'z'
I374
sg4
I374
sba(i__main__
Pixel
p1219
(dp1220
S'y'
I184
sS'x'
I184
sS'z'
I184
sg4
I184
sba(i__main__
Pixel
p1221
(dp1222
S'y'
I1563
sS'x'
I1563
sS'z'
I1563
sg4
I1563
sba(i__main__
Pixel
p1223
(dp1224
S'y'
I1952
sS'x'
I1952
sS'z'
I1952
sg4
I1952
sba(i__main__
Pixel
p1225
(dp1226
S'y'
I477
sS'x'
I477
sS'z'
I477
sg4
I477
sba(i__main__
Pixel
p1227
(dp1228
S'y'
I1222
sS'x'
I1222
sS'z'
I1222
sg4
I1222
sba(i__main__
Pixel
p1229
(dp1230
S'y'
I1197
sS'x'
I1197
sS'z'
I1197
sg4
I1197
sba(i__main__
Pixel
p1231
(dp1232
S'y'
I118
sS'x'
I118
sS'z'
I118
sg4
I118
sba(i__main__
Pixel
p1233
(dp1234
S'y'
I1334
sS'x'
I1334
sS'z'
I1334
sg4
I1334
sba(i__main__
Pixel
p1235
(dp1236
S'y'
I709
sS'x'
I709
sS'z'
I709
sg4
I709
sba(i__main__
Pixel
p1237
(dp1238
S'y'
I578
sS'x'
I578
sS'z'
I578
sg4
I578
sba(i__main__
Pixel
p1239
(dp1240
S'y'
I1044
sS'x'
I1044
sS'z'
I1044
sg4
I1044
sba(i__main__
Pixel
p1241
(dp1242
S'y'
I472
sS'x'
I472
sS'z'
I472
sg4
I472
sba(i__main__
Pixel
p1243
(dp1244
S'y'
I711
sS'x'
I711
sS'z'
I711
sg4
I711
sba(i__main__
Pixel
p1245
(dp1246
S'y'
I192
sS'x'
I192
sS'z'
I192
sg4
I192
sba(i__main__
Pixel
p1247
(dp1248
S'y'
I246
sS'x'
I246
sS'z'
I246
sg4
I246
sba(i__main__
Pixel
p1249
(dp1250
S'y'
I1734
sS'x'
I1734
sS'z'
I1734
sg4
I1734
sba(i__main__
Pixel
p1251
(dp1252
S'y'
I34
sS'x'
I34
sS'z'
I34
sg4
I34
sba(i__main__
Pixel
p1253
(dp1254
S'y'
I779
sS'x'
I779
sS'z'
I779
sg4
I779
sba(i__main__
Pixel
p1255
(dp1256
S'y'
I728
sS'x'
I728
sS'z'
I728
sg4
I728
sba(i__main__
Pixel
p1257
(dp1258
S'y'
I1026
sS'x'
I1026
sS'z'
I1026
sg4
I1026
sba(i__main__
Pixel
p1259
(dp1260
S'y'
I1839
sS'x'
I1839
sS'z'
I1839
sg4
I1839
sba(i__main__
Pixel
p1261
(dp1262
S'y'
I403
sS'x'
I403
sS'z'
I403
sg4
I403
sba(i__main__
Pixel
p1263
(dp1264
S'y'
I448
sS'x'
I448
sS'z'
I448
sg4
I448
sba(i__main__
Pixel
p1265
(dp1266
S'y'
I302
sS'x'
I302
sS'z'
I302
sg4
I302
sba(i__main__
Pixel
p1267
(dp1268
S'y'
I1058
sS'x'
I1058
sS'z'
I1058
sg4
I1058
sba(i__main__
Pixel
p1269
(dp1270
S'y'
I1019
sS'x'
I1019
sS'z'
I1019
sg4
I1019
sba(i__main__
Pixel
p1271
(dp1272
S'y'
I677
sS'x'
I677
sS'z'
I677
sg4
I677
sba(i__main__
Pixel
p1273
(dp1274
S'y'
I1351
sS'x'
I1351
sS'z'
I1351
sg4
I1351
sba(i__main__
Pixel
p1275
(dp1276
S'y'
I958
sS'x'
I958
sS'z'
I958
sg4
I958
sba(i__main__
Pixel
p1277
(dp1278
S'y'
I715
sS'x'
I715
sS'z'
I715
sg4
I715
sba(i__main__
Pixel
p1279
(dp1280
S'y'
I906
sS'x'
I906
sS'z'
I906
sg4
I906
sba(i__main__
Pixel
p1281
(dp1282
S'y'
I876
sS'x'
I876
sS'z'
I876
sg4
I876
sba(i__main__
Pixel
p1283
(dp1284
S'y'
I1965
sS'x'
I1965
sS'z'
I1965
sg4
I1965
sba(i__main__
Pixel
p1285
(dp1286
S'y'
I1445
sS'x'
I1445
sS'z'
I1445
sg4
I1445
sba(i__main__
Pixel
p1287
(dp1288
S'y'
I1699
sS'x'
I1699
sS'z'
I1699
sg4
I1699
sba(i__main__
Pixel
p1289
(dp1290
S'y'
I1740
sS'x'
I1740
sS'z'
I1740
sg4
I1740
sba(i__main__
Pixel
p1291
(dp1292
S'y'
I306
sS'x'
I306
sS'z'
I306
sg4
I306
sba(i__main__
Pixel
p1293
(dp1294
S'y'
I23
sS'x'
I23
sS'z'
I23
sg4
I23
sba(i__main__
Pixel
p1295
(dp1296
S'y'
I1625
sS'x'
I1625
sS'z'
I1625
sg4
I1625
sba(i__main__
Pixel
p1297
(dp1298
S'y'
I862
sS'x'
I862
sS'z'
I862
sg4
I862
sba(i__main__
Pixel
p1299
(dp1300
S'y'
I1560
sS'x'
I1560
sS'z'
I1560
sg4
I1560
sba(i__main__
Pixel
p1301
(dp1302
S'y'
I1984
sS'x'
I1984
sS'z'
I1984
sg4
I1984
sba(i__main__
Pixel
p1303
(dp1304
S'y'
I1883
sS'x'
I1883
sS'z'
I1883
sg4
I1883
sba(i__main__
Pixel
p1305
(dp1306
S'y'
I1543
sS'x'
I1543
sS'z'
I1543
sg4
I1543
sba(i__main__
Pixel
p1307
(dp1308
S'y'
I1552
sS'x'
I1552
sS'z'
I1552
sg4
I1552
sba(i__main__
Pixel
p1309
(dp1310
S'y'
I1580
sS'x'
I1580
sS'z'
I1580
sg4
I1580
sba(i__main__
Pixel
p1311
(dp1312
S'y'
I1174
sS'x'
I1174
sS'z'
I1174
sg4
I1174
sba(i__main__
Pixel
p1313
(dp1314
S'y'
I657
sS'x'
I657
sS'z'
I657
sg4
I657
sba(i__main__
Pixel
p1315
(dp1316
S'y'
I1017
sS'x'
I1017
sS'z'
I1017
sg4
I1017
sba(i__main__
Pixel
p1317
(dp1318
S'y'
I1090
sS'x'
I1090
sS'z'
I1090
sg4
I1090
sba(i__main__
Pixel
p1319
(dp1320
S'y'
I1001
sS'x'
I1001
sS'z'
I1001
sg4
I1001
sba(i__main__
Pixel
p1321
(dp1322
S'y'
I1254
sS'x'
I1254
sS'z'
I1254
sg4
I1254
sba(i__main__
Pixel
p1323
(dp1324
S'y'
I40
sS'x'
I40
sS'z'
I40
sg4
I40
sba(i__main__
Pixel
p1325
(dp1326
S'y'
I1793
sS'x'
I1793
sS'z'
I1793
sg4
I1793
sba(i__main__
Pixel
p1327
(dp1328
S'y'
I412
sS'x'
I412
sS'z'
I412
sg4
I412
sba(i__main__
Pixel
p1329
(dp1330
S'y'
I30
sS'x'
I30
sS'z'
I30
sg4
I30
sba(i__main__
Pixel
p1331
(dp1332
S'y'
I633
sS'x'
I633
sS'z'
I633
sg4
I633
sba(i__main__
Pixel
p1333
(dp1334
S'y'
I1238
sS'x'
I1238
sS'z'
I1238
sg4
I1238
sba(i__main__
Pixel
p1335
(dp1336
S'y'
I787
sS'x'
I787
sS'z'
I787
sg4
I787
sba(i__main__
Pixel
p1337
(dp1338
S'y'
I325
sS'x'
I325
sS'z'
I325
sg4
I325
sba(i__main__
Pixel
p1339
(dp1340
S'y'
I558
sS'x'
I558
sS'z'
I558
sg4
I558
sba(i__main__
Pixel
p1341
(dp1342
S'y'
I560
sS'x'
I560
sS'z'
I560
sg4
I560
sba(i__main__
Pixel
p1343
(dp1344
S'y'
I1555
sS'x'
I1555
sS'z'
I1555
sg4
I1555
sba(i__main__
Pixel
p1345
(dp1346
S'y'
I521
sS'x'
I521
sS'z'
I521
sg4
I521
sba(i__main__
Pixel
p1347
(dp1348
S'y'
I1189
sS'x'
I1189
sS'z'
I1189
sg4
I1189
sba(i__main__
Pixel
p1349
(dp1350
S'y'
I215
sS'x'
I215
sS'z'
I215
sg4
I215
sba(i__main__
Pixel
p1351
(dp1352
S'y'
I783
sS'x'
I783
sS'z'
I783
sg4
I783
sba(i__main__
Pixel
p1353
(dp1354
S'y'
I1042
sS'x'
I1042
sS'z'
I1042
sg4
I1042
sba(i__main__
Pixel
p1355
(dp1356
S'y'
I1824
sS'x'
I1824
sS'z'
I1824
sg4
I1824
sba(i__main__
Pixel
p1357
(dp1358
S'y'
I1312
sS'x'
I1312
sS'z'
I1312
sg4
I1312
sba(i__main__
Pixel
p1359
(dp1360
S'y'
I1225
sS'x'
I1225
sS'z'
I1225
sg4
I1225
sba(i__main__
Pixel
p1361
(dp1362
S'y'
I932
sS'x'
I932
sS'z'
I932
sg4
I932
sba(i__main__
Pixel
p1363
(dp1364
S'y'
I1538
sS'x'
I1538
sS'z'
I1538
sg4
I1538
sba(i__main__
Pixel
p1365
(dp1366
S'y'
I1777
sS'x'
I1777
sS'z'
I1777
sg4
I1777
sba(i__main__
Pixel
p1367
(dp1368
S'y'
I1574
sS'x'
I1574
sS'z'
I1574
sg4
I1574
sba(i__main__
Pixel
p1369
(dp1370
S'y'
I1045
sS'x'
I1045
sS'z'
I1045
sg4
I1045
sba(i__main__
Pixel
p1371
(dp1372
S'y'
I183
sS'x'
I183
sS'z'
I183
sg4
I183
sba(i__main__
Pixel
p1373
(dp1374
S'y'
I952
sS'x'
I952
sS'z'
I952
sg4
I952
sba(i__main__
Pixel
p1375
(dp1376
S'y'
I1966
sS'x'
I1966
sS'z'
I1966
sg4
I1966
sba(i__main__
Pixel
p1377
(dp1378
S'y'
I1342
sS'x'
I1342
sS'z'
I1342
sg4
I1342
sba(i__main__
Pixel
p1379
(dp1380
S'y'
I225
sS'x'
I225
sS'z'
I225
sg4
I225
sba(i__main__
Pixel
p1381
(dp1382
S'y'
I570
sS'x'
I570
sS'z'
I570
sg4
I570
sba(i__main__
Pixel
p1383
(dp1384
S'y'
I1807
sS'x'
I1807
sS'z'
I1807
sg4
I1807
sba(i__main__
Pixel
p1385
(dp1386
S'y'
I1697
sS'x'
I1697
sS'z'
I1697
sg4
I1697
sba(i__main__
Pixel
p1387
(dp1388
S'y'
I1160
sS'x'
I1160
sS'z'
I1160
sg4
I1160
sba(i__main__
Pixel
p1389
(dp1390
S'y'
I292
sS'x'
I292
sS'z'
I292
sg4
I292
sba(i__main__
Pixel
p1391
(dp1392
S'y'
I1761
sS'x'
I1761
sS'z'
I1761
sg4
I1761
sba(i__main__
Pixel
p1393
(dp1394
S'y'
I227
sS'x'
I227
sS'z'
I227
sg4
I227
sba(i__main__
Pixel
p1395
(dp1396
S'y'
I1326
sS'x'
I1326
sS'z'
I1326
sg4
I1326
sba(i__main__
Pixel
p1397
(dp1398
S'y'
I1449
sS'x'
I1449
sS'z'
I1449
sg4
I1449
sba(i__main__
Pixel
p1399
(dp1400
S'y'
I1732
sS'x'
I1732
sS'z'
I1732
sg4
I1732
sba(i__main__
Pixel
p1401
(dp1402
S'y'
I239
sS'x'
I239
sS'z'
I239
sg4
I239
sba(i__main__
Pixel
p1403
(dp1404
S'y'
I59
sS'x'
I59
sS'z'
I59
sg4
I59
sba(i__main__
Pixel
p1405
(dp1406
S'y'
I81
sS'x'
I81
sS'z'
I81
sg4
I81
sba(i__main__
Pixel
p1407
(dp1408
S'y'
I755
sS'x'
I755
sS'z'
I755
sg4
I755
sba(i__main__
Pixel
p1409
(dp1410
S'y'
I1525
sS'x'
I1525
sS'z'
I1525
sg4
I1525
sba(i__main__
Pixel
p1411
(dp1412
S'y'
I893
sS'x'
I893
sS'z'
I893
sg4
I893
sba(i__main__
Pixel
p1413
(dp1414
S'y'
I270
sS'x'
I270
sS'z'
I270
sg4
I270
sba(i__main__
Pixel
p1415
(dp1416
S'y'
I158
sS'x'
I158
sS'z'
I158
sg4
I158
sba(i__main__
Pixel
p1417
(dp1418
S'y'
I413
sS'x'
I413
sS'z'
I413
sg4
I413
sba(i__main__
Pixel
p1419
(dp1420
S'y'
I224
sS'x'
I224
sS'z'
I224
sg4
I224
sba(i__main__
Pixel
p1421
(dp1422
S'y'
I1924
sS'x'
I1924
sS'z'
I1924
sg4
I1924
sba(i__main__
Pixel
p1423
(dp1424
S'y'
I365
sS'x'
I365
sS'z'
I365
sg4
I365
sba(i__main__
Pixel
p1425
(dp1426
S'y'
I1695
sS'x'
I1695
sS'z'
I1695
sg4
I1695
sba(i__main__
Pixel
p1427
(dp1428
S'y'
I1542
sS'x'
I1542
sS'z'
I1542
sg4
I1542
sba(i__main__
Pixel
p1429
(dp1430
S'y'
I463
sS'x'
I463
sS'z'
I463
sg4
I463
sba(i__main__
Pixel
p1431
(dp1432
S'y'
I1401
sS'x'
I1401
sS'z'
I1401
sg4
I1401
sba(i__main__
Pixel
p1433
(dp1434
S'y'
I891
sS'x'
I891
sS'z'
I891
sg4
I891
sba(i__main__
Pixel
p1435
(dp1436
S'y'
I1187
sS'x'
I1187
sS'z'
I1187
sg4
I1187
sba(i__main__
Pixel
p1437
(dp1438
S'y'
I1135
sS'x'
I1135
sS'z'
I1135
sg4
I1135
sba(i__main__
Pixel
p1439
(dp1440
S'y'
I832
sS'x'
I832
sS'z'
I832
sg4
I832
sba(i__main__
Pixel
p1441
(dp1442
S'y'
I1526
sS'x'
I1526
sS'z'
I1526
sg4
I1526
sba(i__main__
Pixel
p1443
(dp1444
S'y'
I967
sS'x'
I967
sS'z'
I967
sg4
I967
sba(i__main__
Pixel
p1445
(dp1446
S'y'
I864
sS'x'
I864
sS'z'
I864
sg4
I864
sba(i__main__
Pixel
p1447
(dp1448
S'y'
I272
sS'x'
I272
sS'z'
I272
sg4
I272
sba(i__main__
Pixel
p1449
(dp1450
S'y'
I924
sS'x'
I924
sS'z'
I924
sg4
I924
sba(i__main__
Pixel
p1451
(dp1452
S'y'
I1975
sS'x'
I1975
sS'z'
I1975
sg4
I1975
sba(i__main__
Pixel
p1453
(dp1454
S'y'
I1608
sS'x'
I1608
sS'z'
I1608
sg4
I1608
sba(i__main__
Pixel
p1455
(dp1456
S'y'
I249
sS'x'
I249
sS'z'
I249
sg4
I249
sba(i__main__
Pixel
p1457
(dp1458
S'y'
I1111
sS'x'
I1111
sS'z'
I1111
sg4
I1111
sba(i__main__
Pixel
p1459
(dp1460
S'y'
I1927
sS'x'
I1927
sS'z'
I1927
sg4
I1927
sba(i__main__
Pixel
p1461
(dp1462
S'y'
I502
sS'x'
I502
sS'z'
I502
sg4
I502
sba(i__main__
Pixel
p1463
(dp1464
S'y'
I407
sS'x'
I407
sS'z'
I407
sg4
I407
sba(i__main__
Pixel
p1465
(dp1466
S'y'
I995
sS'x'
I995
sS'z'
I995
sg4
I995
sba(i__main__
Pixel
p1467
(dp1468
S'y'
I260
sS'x'
I260
sS'z'
I260
sg4
I260
sba(i__main__
Pixel
p1469
(dp1470
S'y'
I1027
sS'x'
I1027
sS'z'
I1027
sg4
I1027
sba(i__main__
Pixel
p1471
(dp1472
S'y'
I114
sS'x'
I114
sS'z'
I114
sg4
I114
sba(i__main__
Pixel
p1473
(dp1474
S'y'
I1028
sS'x'
I1028
sS'z'
I1028
sg4
I1028
sba(i__main__
Pixel
p1475
(dp1476
S'y'
I1169
sS'x'
I1169
sS'z'
I1169
sg4
I1169
sba(i__main__
Pixel
p1477
(dp1478
S'y'
I1029
sS'x'
I1029
sS'z'
I1029
sg4
I1029
sba(i__main__
Pixel
p1479
(dp1480
S'y'
I310
sS'x'
I310
sS'z'
I310
sg4
I310
sba(i__main__
Pixel
p1481
(dp1482
S'y'
I94
sS'x'
I94
sS'z'
I94
sg4
I94
sba(i__main__
Pixel
p1483
(dp1484
S'y'
I1349
sS'x'
I1349
sS'z'
I1349
sg4
I1349
sba(i__main__
Pixel
p1485
(dp1486
S'y'
I399
sS'x'
I399
sS'z'
I399
sg4
I399
sba(i__main__
Pixel
p1487
(dp1488
S'y'
I1178
sS'x'
I1178
sS'z'
I1178
sg4
I1178
sba(i__main__
Pixel
p1489
(dp1490
S'y'
I204
sS'x'
I204
sS'z'
I204
sg4
I204
sba(i__main__
Pixel
p1491
(dp1492
S'y'
I687
sS'x'
I687
sS'z'
I687
sg4
I687
sba(i__main__
Pixel
p1493
(dp1494
S'y'
I1818
sS'x'
I1818
sS'z'
I1818
sg4
I1818
sba(i__main__
Pixel
p1495
(dp1496
S'y'
I1630
sS'x'
I1630
sS'z'
I1630
sg4
I1630
sba(i__main__
Pixel
p1497
(dp1498
S'y'
I1241
sS'x'
I1241
sS'z'
I1241
sg4
I1241
sba(i__main__
Pixel
p1499
(dp1500
S'y'
I654
sS'x'
I654
sS'z'
I654
sg4
I654
sba(i__main__
Pixel
p1501
(dp1502
S'y'
I1554
sS'x'
I1554
sS'z'
I1554
sg4
I1554
sba(i__main__
Pixel
p1503
(dp1504
S'y'
I1264
sS'x'
I1264
sS'z'
I1264
sg4
I1264
sba(i__main__
Pixel
p1505
(dp1506
S'y'
I1923
sS'x'
I1923
sS'z'
I1923
sg4
I1923
sba(i__main__
Pixel
p1507
(dp1508
S'y'
I1854
sS'x'
I1854
sS'z'
I1854
sg4
I1854
sba(i__main__
Pixel
p1509
(dp1510
S'y'
I348
sS'x'
I348
sS'z'
I348
sg4
I348
sba(i__main__
Pixel
p1511
(dp1512
S'y'
I1611
sS'x'
I1611
sS'z'
I1611
sg4
I1611
sba(i__main__
Pixel
p1513
(dp1514
S'y'
I1930
sS'x'
I1930
sS'z'
I1930
sg4
I1930
sba(i__main__
Pixel
p1515
(dp1516
S'y'
I684
sS'x'
I684
sS'z'
I684
sg4
I684
sba(i__main__
Pixel
p1517
(dp1518
S'y'
I115
sS'x'
I115
sS'z'
I115
sg4
I115
sba(i__main__
Pixel
p1519
(dp1520
S'y'
I126
sS'x'
I126
sS'z'
I126
sg4
I126
sba(i__main__
Pixel
p1521
(dp1522
S'y'
I1651
sS'x'
I1651
sS'z'
I1651
sg4
I1651
sba(i__main__
Pixel
p1523
(dp1524
S'y'
I532
sS'x'
I532
sS'z'
I532
sg4
I532
sba(i__main__
Pixel
p1525
(dp1526
S'y'
I868
sS'x'
I868
sS'z'
I868
sg4
I868
sba(i__main__
Pixel
p1527
(dp1528
S'y'
I210
sS'x'
I210
sS'z'
I210
sg4
I210
sba(i__main__
Pixel
p1529
(dp1530
S'y'
I1140
sS'x'
I1140
sS'z'
I1140
sg4
I1140
sba(i__main__
Pixel
p1531
(dp1532
S'y'
I1516
sS'x'
I1516
sS'z'
I1516
sg4
I1516
sba(i__main__
Pixel
p1533
(dp1534
S'y'
I162
sS'x'
I162
sS'z'
I162
sg4
I162
sba(i__main__
Pixel
p1535
(dp1536
S'y'
I1031
sS'x'
I1031
sS'z'
I1031
sg4
I1031
sba(i__main__
Pixel
p1537
(dp1538
S'y'
I944
sS'x'
I944
sS'z'
I944
sg4
I944
sba(i__main__
Pixel
p1539
(dp1540
S'y'
I1588
sS'x'
I1588
sS'z'
I1588
sg4
I1588
sba(i__main__
Pixel
p1541
(dp1542
S'y'
I635
sS'x'
I635
sS'z'
I635
sg4
I635
sba(i__main__
Pixel
p1543
(dp1544
S'y'
I1190
sS'x'
I1190
sS'z'
I1190
sg4
I1190
sba(i__main__
Pixel
p1545
(dp1546
S'y'
I1522
sS'x'
I1522
sS'z'
I1522
sg4
I1522
sba(i__main__
Pixel
p1547
(dp1548
S'y'
I1360
sS'x'
I1360
sS'z'
I1360
sg4
I1360
sba(i__main__
Pixel
p1549
(dp1550
S'y'
I1770
sS'x'
I1770
sS'z'
I1770
sg4
I1770
sba(i__main__
Pixel
p1551
(dp1552
S'y'
I1409
sS'x'
I1409
sS'z'
I1409
sg4
I1409
sba(i__main__
Pixel
p1553
(dp1554
S'y'
I667
sS'x'
I667
sS'z'
I667
sg4
I667
sba(i__main__
Pixel
p1555
(dp1556
S'y'
I977
sS'x'
I977
sS'z'
I977
sg4
I977
sba(i__main__
Pixel
p1557
(dp1558
S'y'
I752
sS'x'
I752
sS'z'
I752
sg4
I752
sba(i__main__
Pixel
p1559
(dp1560
S'y'
I1490
sS'x'
I1490
sS'z'
I1490
sg4
I1490
sba(i__main__
Pixel
p1561
(dp1562
S'y'
I423
sS'x'
I423
sS'z'
I423
sg4
I423
sba(i__main__
Pixel
p1563
(dp1564
S'y'
I196
sS'x'
I196
sS'z'
I196
sg4
I196
sba(i__main__
Pixel
p1565
(dp1566
S'y'
I1176
sS'x'
I1176
sS'z'
I1176
sg4
I1176
sba(i__main__
Pixel
p1567
(dp1568
S'y'
I46
sS'x'
I46
sS'z'
I46
sg4
I46
sba(i__main__
Pixel
p1569
(dp1570
S'y'
I1540
sS'x'
I1540
sS'z'
I1540
sg4
I1540
sba(i__main__
Pixel
p1571
(dp1572
S'y'
I39
sS'x'
I39
sS'z'
I39
sg4
I39
sba(i__main__
Pixel
p1573
(dp1574
S'y'
I1899
sS'x'
I1899
sS'z'
I1899
sg4
I1899
sba(i__main__
Pixel
p1575
(dp1576
S'y'
I1579
sS'x'
I1579
sS'z'
I1579
sg4
I1579
sba(i__main__
Pixel
p1577
(dp1578
S'y'
I1339
sS'x'
I1339
sS'z'
I1339
sg4
I1339
sba(i__main__
Pixel
p1579
(dp1580
S'y'
I230
sS'x'
I230
sS'z'
I230
sg4
I230
sba(i__main__
Pixel
p1581
(dp1582
S'y'
I392
sS'x'
I392
sS'z'
I392
sg4
I392
sba(i__main__
Pixel
p1583
(dp1584
S'y'
I1118
sS'x'
I1118
sS'z'
I1118
sg4
I1118
sba(i__main__
Pixel
p1585
(dp1586
S'y'
I1224
sS'x'
I1224
sS'z'
I1224
sg4
I1224
sba(i__main__
Pixel
p1587
(dp1588
S'y'
I563
sS'x'
I563
sS'z'
I563
sg4
I563
sba(i__main__
Pixel
p1589
(dp1590
S'y'
I549
sS'x'
I549
sS'z'
I549
sg4
I549
sba(i__main__
Pixel
p1591
(dp1592
S'y'
I630
sS'x'
I630
sS'z'
I630
sg4
I630
sba(i__main__
Pixel
p1593
(dp1594
S'y'
I768
sS'x'
I768
sS'z'
I768
sg4
I768
sba(i__main__
Pixel
p1595
(dp1596
S'y'
I996
sS'x'
I996
sS'z'
I996
sg4
I996
sba(i__main__
Pixel
p1597
(dp1598
S'y'
I547
sS'x'
I547
sS'z'
I547
sg4
I547
sba(i__main__
Pixel
p1599
(dp1600
S'y'
I562
sS'x'
I562
sS'z'
I562
sg4
I562
sba(i__main__
Pixel
p1601
(dp1602
S'y'
I1338
sS'x'
I1338
sS'z'
I1338
sg4
I1338
sba(i__main__
Pixel
p1603
(dp1604
S'y'
I1729
sS'x'
I1729
sS'z'
I1729
sg4
I1729
sba(i__main__
Pixel
p1605
(dp1606
S'y'
I1078
sS'x'
I1078
sS'z'
I1078
sg4
I1078
sba(i__main__
Pixel
p1607
(dp1608
S'y'
I682
sS'x'
I682
sS'z'
I682
sg4
I682
sba(i__main__
Pixel
p1609
(dp1610
S'y'
I1084
sS'x'
I1084
sS'z'
I1084
sg4
I1084
sba(i__main__
Pixel
p1611
(dp1612
S'y'
I152
sS'x'
I152
sS'z'
I152
sg4
I152
sba(i__main__
Pixel
p1613
(dp1614
S'y'
I1834
sS'x'
I1834
sS'z'
I1834
sg4
I1834
sba(i__main__
Pixel
p1615
(dp1616
S'y'
I954
sS'x'
I954
sS'z'
I954
sg4
I954
sba(i__main__
Pixel
p1617
(dp1618
S'y'
I1917
sS'x'
I1917
sS'z'
I1917
sg4
I1917
sba(i__main__
Pixel
p1619
(dp1620
S'y'
I1978
sS'x'
I1978
sS'z'
I1978
sg4
I1978
sba(i__main__
Pixel
p1621
(dp1622
S'y'
I980
sS'x'
I980
sS'z'
I980
sg4
I980
sba(i__main__
Pixel
p1623
(dp1624
S'y'
I884
sS'x'
I884
sS'z'
I884
sg4
I884
sba(i__main__
Pixel
p1625
(dp1626
S'y'
I1454
sS'x'
I1454
sS'z'
I1454
sg4
I1454
sba(i__main__
Pixel
p1627
(dp1628
S'y'
I1141
sS'x'
I1141
sS'z'
I1141
sg4
I1141
sba(i__main__
Pixel
p1629
(dp1630
S'y'
I1484
sS'x'
I1484
sS'z'
I1484
sg4
I1484
sba(i__main__
Pixel
p1631
(dp1632
S'y'
I1823
sS'x'
I1823
sS'z'
I1823
sg4
I1823
sba(i__main__
Pixel
p1633
(dp1634
S'y'
I1183
sS'x'
I1183
sS'z'
I1183
sg4
I1183
sba(i__main__
Pixel
p1635
(dp1636
S'y'
I1985
sS'x'
I1985
sS'z'
I1985
sg4
I1985
sba(i__main__
Pixel
p1637
(dp1638
S'y'
I1392
sS'x'
I1392
sS'z'
I1392
sg4
I1392
sba(i__main__
Pixel
p1639
(dp1640
S'y'
I1051
sS'x'
I1051
sS'z'
I1051
sg4
I1051
sba(i__main__
Pixel
p1641
(dp1642
S'y'
I1440
sS'x'
I1440
sS'z'
I1440
sg4
I1440
sba(i__main__
Pixel
p1643
(dp1644
S'y'
I163
sS'x'
I163
sS'z'
I163
sg4
I163
sba(i__main__
Pixel
p1645
(dp1646
S'y'
I748
sS'x'
I748
sS'z'
I748
sg4
I748
sba(i__main__
Pixel
p1647
(dp1648
S'y'
I282
sS'x'
I282
sS'z'
I282
sg4
I282
sba(i__main__
Pixel
p1649
(dp1650
S'y'
I1052
sS'x'
I1052
sS'z'
I1052
sg4
I1052
sba(i__main__
Pixel
p1651
(dp1652
S'y'
I1461
sS'x'
I1461
sS'z'
I1461
sg4
I1461
sba(i__main__
Pixel
p1653
(dp1654
S'y'
I810
sS'x'
I810
sS'z'
I810
sg4
I810
sba(i__main__
Pixel
p1655
(dp1656
S'y'
I1527
sS'x'
I1527
sS'z'
I1527
sg4
I1527
sba(i__main__
Pixel
p1657
(dp1658
S'y'
I1590
sS'x'
I1590
sS'z'
I1590
sg4
I1590
sba(i__main__
Pixel
p1659
(dp1660
S'y'
I1586
sS'x'
I1586
sS'z'
I1586
sg4
I1586
sba(i__main__
Pixel
p1661
(dp1662
S'y'
I1812
sS'x'
I1812
sS'z'
I1812
sg4
I1812
sba(i__main__
Pixel
p1663
(dp1664
S'y'
I1040
sS'x'
I1040
sS'z'
I1040
sg4
I1040
sba(i__main__
Pixel
p1665
(dp1666
S'y'
I308
sS'x'
I308
sS'z'
I308
sg4
I308
sba(i__main__
Pixel
p1667
(dp1668
S'y'
I1283
sS'x'
I1283
sS'z'
I1283
sg4
I1283
sba(i__main__
Pixel
p1669
(dp1670
S'y'
I498
sS'x'
I498
sS'z'
I498
sg4
I498
sba(i__main__
Pixel
p1671
(dp1672
S'y'
I211
sS'x'
I211
sS'z'
I211
sg4
I211
sba(i__main__
Pixel
p1673
(dp1674
S'y'
I1791
sS'x'
I1791
sS'z'
I1791
sg4
I1791
sba(i__main__
Pixel
p1675
(dp1676
S'y'
I1692
sS'x'
I1692
sS'z'
I1692
sg4
I1692
sba(i__main__
Pixel
p1677
(dp1678
S'y'
I531
sS'x'
I531
sS'z'
I531
sg4
I531
sba(i__main__
Pixel
p1679
(dp1680
S'y'
I436
sS'x'
I436
sS'z'
I436
sg4
I436
sba(i__main__
Pixel
p1681
(dp1682
S'y'
I1658
sS'x'
I1658
sS'z'
I1658
sg4
I1658
sba(i__main__
Pixel
p1683
(dp1684
S'y'
I1471
sS'x'
I1471
sS'z'
I1471
sg4
I1471
sba(i__main__
Pixel
p1685
(dp1686
S'y'
I490
sS'x'
I490
sS'z'
I490
sg4
I490
sba(i__main__
Pixel
p1687
(dp1688
S'y'
I1804
sS'x'
I1804
sS'z'
I1804
sg4
I1804
sba(i__main__
Pixel
p1689
(dp1690
S'y'
I1721
sS'x'
I1721
sS'z'
I1721
sg4
I1721
sba(i__main__
Pixel
p1691
(dp1692
S'y'
I1355
sS'x'
I1355
sS'z'
I1355
sg4
I1355
sba(i__main__
Pixel
p1693
(dp1694
S'y'
I946
sS'x'
I946
sS'z'
I946
sg4
I946
sba(i__main__
Pixel
p1695
(dp1696
S'y'
I1213
sS'x'
I1213
sS'z'
I1213
sg4
I1213
sba(i__main__
Pixel
p1697
(dp1698
S'y'
I404
sS'x'
I404
sS'z'
I404
sg4
I404
sba(i__main__
Pixel
p1699
(dp1700
S'y'
I1948
sS'x'
I1948
sS'z'
I1948
sg4
I1948
sba(i__main__
Pixel
p1701
(dp1702
S'y'
I1154
sS'x'
I1154
sS'z'
I1154
sg4
I1154
sba(i__main__
Pixel
p1703
(dp1704
S'y'
I1976
sS'x'
I1976
sS'z'
I1976
sg4
I1976
sba(i__main__
Pixel
p1705
(dp1706
S'y'
I911
sS'x'
I911
sS'z'
I911
sg4
I911
sba(i__main__
Pixel
p1707
(dp1708
S'y'
I283
sS'x'
I283
sS'z'
I283
sg4
I283
sba(i__main__
Pixel
p1709
(dp1710
S'y'
I1442
sS'x'
I1442
sS'z'
I1442
sg4
I1442
sba(i__main__
Pixel
p1711
(dp1712
S'y'
I305
sS'x'
I305
sS'z'
I305
sg4
I305
sba(i__main__
Pixel
p1713
(dp1714
S'y'
I842
sS'x'
I842
sS'z'
I842
sg4
I842
sba(i__main__
Pixel
p1715
(dp1716
S'y'
I1446
sS'x'
I1446
sS'z'
I1446
sg4
I1446
sba(i__main__
Pixel
p1717
(dp1718
S'y'
I82
sS'x'
I82
sS'z'
I82
sg4
I82
sba(i__main__
Pixel
p1719
(dp1720
S'y'
I1138
sS'x'
I1138
sS'z'
I1138
sg4
I1138
sba(i__main__
Pixel
p1721
(dp1722
S'y'
I1239
sS'x'
I1239
sS'z'
I1239
sg4
I1239
sba(i__main__
Pixel
p1723
(dp1724
S'y'
I1399
sS'x'
I1399
sS'z'
I1399
sg4
I1399
sba(i__main__
Pixel
p1725
(dp1726
S'y'
I1127
sS'x'
I1127
sS'z'
I1127
sg4
I1127
sba(i__main__
Pixel
p1727
(dp1728
S'y'
I495
sS'x'
I495
sS'z'
I495
sg4
I495
sba(i__main__
Pixel
p1729
(dp1730
S'y'
I998
sS'x'
I998
sS'z'
I998
sg4
I998
sba(i__main__
Pixel
p1731
(dp1732
S'y'
I1365
sS'x'
I1365
sS'z'
I1365
sg4
I1365
sba(i__main__
Pixel
p1733
(dp1734
S'y'
I339
sS'x'
I339
sS'z'
I339
sg4
I339
sba(i__main__
Pixel
p1735
(dp1736
S'y'
I1347
sS'x'
I1347
sS'z'
I1347
sg4
I1347
sba(i__main__
Pixel
p1737
(dp1738
S'y'
I151
sS'x'
I151
sS'z'
I151
sg4
I151
sba(i__main__
Pixel
p1739
(dp1740
S'y'
I598
sS'x'
I598
sS'z'
I598
sg4
I598
sba(i__main__
Pixel
p1741
(dp1742
S'y'
I605
sS'x'
I605
sS'z'
I605
sg4
I605
sba(i__main__
Pixel
p1743
(dp1744
S'y'
I913
sS'x'
I913
sS'z'
I913
sg4
I913
sba(i__main__
Pixel
p1745
(dp1746
S'y'
I1275
sS'x'
I1275
sS'z'
I1275
sg4
I1275
sba(i__main__
Pixel
p1747
(dp1748
S'y'
I245
sS'x'
I245
sS'z'
I245
sg4
I245
sba(i__main__
Pixel
p1749
(dp1750
S'y'
I859
sS'x'
I859
sS'z'
I859
sg4
I859
sba(i__main__
Pixel
p1751
(dp1752
S'y'
I1037
sS'x'
I1037
sS'z'
I1037
sg4
I1037
sba(i__main__
Pixel
p1753
(dp1754
S'y'
I1462
sS'x'
I1462
sS'z'
I1462
sg4
I1462
sba(i__main__
Pixel
p1755
(dp1756
S'y'
I1191
sS'x'
I1191
sS'z'
I1191
sg4
I1191
sba(i__main__
Pixel
p1757
(dp1758
S'y'
I642
sS'x'
I642
sS'z'
I642
sg4
I642
sba(i__main__
Pixel
p1759
(dp1760
S'y'
I1787
sS'x'
I1787
sS'z'
I1787
sg4
I1787
sba(i__main__
Pixel
p1761
(dp1762
S'y'
I1960
sS'x'
I1960
sS'z'
I1960
sg4
I1960
sba(i__main__
Pixel
p1763
(dp1764
S'y'
I1394
sS'x'
I1394
sS'z'
I1394
sg4
I1394
sba(i__main__
Pixel
p1765
(dp1766
S'y'
I1325
sS'x'
I1325
sS'z'
I1325
sg4
I1325
sba(i__main__
Pixel
p1767
(dp1768
S'y'
I1426
sS'x'
I1426
sS'z'
I1426
sg4
I1426
sba(i__main__
Pixel
p1769
(dp1770
S'y'
I1836
sS'x'
I1836
sS'z'
I1836
sg4
I1836
sba(i__main__
Pixel
p1771
(dp1772
S'y'
I1914
sS'x'
I1914
sS'z'
I1914
sg4
I1914
sba(i__main__
Pixel
p1773
(dp1774
S'y'
I596
sS'x'
I596
sS'z'
I596
sg4
I596
sba(i__main__
Pixel
p1775
(dp1776
S'y'
I1576
sS'x'
I1576
sS'z'
I1576
sg4
I1576
sba(i__main__
Pixel
p1777
(dp1778
S'y'
I1069
sS'x'
I1069
sS'z'
I1069
sg4
I1069
sba(i__main__
Pixel
p1779
(dp1780
S'y'
I1596
sS'x'
I1596
sS'z'
I1596
sg4
I1596
sba(i__main__
Pixel
p1781
(dp1782
S'y'
I1175
sS'x'
I1175
sS'z'
I1175
sg4
I1175
sba(i__main__
Pixel
p1783
(dp1784
S'y'
I1249
sS'x'
I1249
sS'z'
I1249
sg4
I1249
sba(i__main__
Pixel
p1785
(dp1786
S'y'
I1783
sS'x'
I1783
sS'z'
I1783
sg4
I1783
sba(i__main__
Pixel
p1787
(dp1788
S'y'
I713
sS'x'
I713
sS'z'
I713
sg4
I713
sba(i__main__
Pixel
p1789
(dp1790
S'y'
I1594
sS'x'
I1594
sS'z'
I1594
sg4
I1594
sba(i__main__
Pixel
p1791
(dp1792
S'y'
I105
sS'x'
I105
sS'z'
I105
sg4
I105
sba(i__main__
Pixel
p1793
(dp1794
S'y'
I1465
sS'x'
I1465
sS'z'
I1465
sg4
I1465
sba(i__main__
Pixel
p1795
(dp1796
S'y'
I1441
sS'x'
I1441
sS'z'
I1441
sg4
I1441
sba(i__main__
Pixel
p1797
(dp1798
S'y'
I1819
sS'x'
I1819
sS'z'
I1819
sg4
I1819
sba(i__main__
Pixel
p1799
(dp1800
S'y'
I1501
sS'x'
I1501
sS'z'
I1501
sg4
I1501
sba(i__main__
Pixel
p1801
(dp1802
S'y'
I1681
sS'x'
I1681
sS'z'
I1681
sg4
I1681
sba(i__main__
Pixel
p1803
(dp1804
S'y'
I103
sS'x'
I103
sS'z'
I103
sg4
I103
sba(i__main__
Pixel
p1805
(dp1806
S'y'
I388
sS'x'
I388
sS'z'
I388
sg4
I388
sba(i__main__
Pixel
p1807
(dp1808
S'y'
I805
sS'x'
I805
sS'z'
I805
sg4
I805
sba(i__main__
Pixel
p1809
(dp1810
S'y'
I1211
sS'x'
I1211
sS'z'
I1211
sg4
I1211
sba(i__main__
Pixel
p1811
(dp1812
S'y'
I1506
sS'x'
I1506
sS'z'
I1506
sg4
I1506
sba(i__main__
Pixel
p1813
(dp1814
S'y'
I1820
sS'x'
I1820
sS'z'
I1820
sg4
I1820
sba(i__main__
Pixel
p1815
(dp1816
S'y'
I1837
sS'x'
I1837
sS'z'
I1837
sg4
I1837
sba(i__main__
Pixel
p1817
(dp1818
S'y'
I1936
sS'x'
I1936
sS'z'
I1936
sg4
I1936
sba(i__main__
Pixel
p1819
(dp1820
S'y'
I289
sS'x'
I289
sS'z'
I289
sg4
I289
sba(i__main__
Pixel
p1821
(dp1822
S'y'
I497
sS'x'
I497
sS'z'
I497
sg4
I497
sba(i__main__
Pixel
p1823
(dp1824
S'y'
I767
sS'x'
I767
sS'z'
I767
sg4
I767
sba(i__main__
Pixel
p1825
(dp1826
S'y'
I1605
sS'x'
I1605
sS'z'
I1605
sg4
I1605
sba(i__main__
Pixel
p1827
(dp1828
S'y'
I1444
sS'x'
I1444
sS'z'
I1444
sg4
I1444
sba(i__main__
Pixel
p1829
(dp1830
S'y'
I79
sS'x'
I79
sS'z'
I79
sg4
I79
sba(i__main__
Pixel
p1831
(dp1832
S'y'
I101
sS'x'
I101
sS'z'
I101
sg4
I101
sba(i__main__
Pixel
p1833
(dp1834
S'y'
I1269
sS'x'
I1269
sS'z'
I1269
sg4
I1269
sba(i__main__
Pixel
p1835
(dp1836
S'y'
I1685
sS'x'
I1685
sS'z'
I1685
sg4
I1685
sba(i__main__
Pixel
p1837
(dp1838
S'y'
I1649
sS'x'
I1649
sS'z'
I1649
sg4
I1649
sba(i__main__
Pixel
p1839
(dp1840
S'y'
I877
sS'x'
I877
sS'z'
I877
sg4
I877
sba(i__main__
Pixel
p1841
(dp1842
S'y'
I1999
sS'x'
I1999
sS'z'
I1999
sg4
I1999
sba(i__main__
Pixel
p1843
(dp1844
S'y'
I1378
sS'x'
I1378
sS'z'
I1378
sg4
I1378
sba(i__main__
Pixel
p1845
(dp1846
S'y'
I898
sS'x'
I898
sS'z'
I898
sg4
I898
sba(i__main__
Pixel
p1847
(dp1848
S'y'
I1179
sS'x'
I1179
sS'z'
I1179
sg4
I1179
sba(i__main__
Pixel
p1849
(dp1850
S'y'
I1417
sS'x'
I1417
sS'z'
I1417
sg4
I1417
sba(i__main__
Pixel
p1851
(dp1852
S'y'
I1650
sS'x'
I1650
sS'z'
I1650
sg4
I1650
sba(i__main__
Pixel
p1853
(dp1854
S'y'
I1173
sS'x'
I1173
sS'z'
I1173
sg4
I1173
sba(i__main__
Pixel
p1855
(dp1856
S'y'
I319
sS'x'
I319
sS'z'
I319
sg4
I319
sba(i__main__
Pixel
p1857
(dp1858
S'y'
I887
sS'x'
I887
sS'z'
I887
sg4
I887
sba(i__main__
Pixel
p1859
(dp1860
S'y'
I1095
sS'x'
I1095
sS'z'
I1095
sg4
I1095
sba(i__main__
Pixel
p1861
(dp1862
S'y'
I1915
sS'x'
I1915
sS'z'
I1915
sg4
I1915
sba(i__main__
Pixel
p1863
(dp1864
S'y'
I1079
sS'x'
I1079
sS'z'
I1079
sg4
I1079
sba(i__main__
Pixel
p1865
(dp1866
S'y'
I1842
sS'x'
I1842
sS'z'
I1842
sg4
I1842
sba(i__main__
Pixel
p1867
(dp1868
S'y'
I712
sS'x'
I712
sS'z'
I712
sg4
I712
sba(i__main__
Pixel
p1869
(dp1870
S'y'
I1946
sS'x'
I1946
sS'z'
I1946
sg4
I1946
sba(i__main__
Pixel
p1871
(dp1872
S'y'
I602
sS'x'
I602
sS'z'
I602
sg4
I602
sba(i__main__
Pixel
p1873
(dp1874
S'y'
I275
sS'x'
I275
sS'z'
I275
sg4
I275
sba(i__main__
Pixel
p1875
(dp1876
S'y'
I827
sS'x'
I827
sS'z'
I827
sg4
I827
sba(i__main__
Pixel
p1877
(dp1878
S'y'
I1155
sS'x'
I1155
sS'z'
I1155
sg4
I1155
sba(i__main__
Pixel
p1879
(dp1880
S'y'
I1021
sS'x'
I1021
sS'z'
I1021
sg4
I1021
sba(i__main__
Pixel
p1881
(dp1882
S'y'
I1962
sS'x'
I1962
sS'z'
I1962
sg4
I1962
sba(i__main__
Pixel
p1883
(dp1884
S'y'
I637
sS'x'
I637
sS'z'
I637
sg4
I637
sba(i__main__
Pixel
p1885
(dp1886
S'y'
I873
sS'x'
I873
sS'z'
I873
sg4
I873
sba(i__main__
Pixel
p1887
(dp1888
S'y'
I1803
sS'x'
I1803
sS'z'
I1803
sg4
I1803
sba(i__main__
Pixel
p1889
(dp1890
S'y'
I1162
sS'x'
I1162
sS'z'
I1162
sg4
I1162
sba(i__main__
Pixel
p1891
(dp1892
S'y'
I1422
sS'x'
I1422
sS'z'
I1422
sg4
I1422
sba(i__main__
Pixel
p1893
(dp1894
S'y'
I1419
sS'x'
I1419
sS'z'
I1419
sg4
I1419
sba(i__main__
Pixel
p1895
(dp1896
S'y'
I9
sS'x'
I9
sS'z'
I9
sg4
I9
sba(i__main__
Pixel
p1897
(dp1898
S'y'
I819
sS'x'
I819
sS'z'
I819
sg4
I819
sba(i__main__
Pixel
p1899
(dp1900
S'y'
I1769
sS'x'
I1769
sS'z'
I1769
sg4
I1769
sba(i__main__
Pixel
p1901
(dp1902
S'y'
I688
sS'x'
I688
sS'z'
I688
sg4
I688
sba(i__main__
Pixel
p1903
(dp1904
S'y'
I1251
sS'x'
I1251
sS'z'
I1251
sg4
I1251
sba(i__main__
Pixel
p1905
(dp1906
S'y'
I1550
sS'x'
I1550
sS'z'
I1550
sg4
I1550
sba(i__main__
Pixel
p1907
(dp1908
S'y'
I848
sS'x'
I848
sS'z'
I848
sg4
I848
sba(i__main__
Pixel
p1909
(dp1910
S'y'
I476
sS'x'
I476
sS'z'
I476
sg4
I476
sba(i__main__
Pixel
p1911
(dp1912
S'y'
I785
sS'x'
I785
sS'z'
I785
sg4
I785
sba(i__main__
Pixel
p1913
(dp1914
S'y'
I1926
sS'x'
I1926
sS'z'
I1926
sg4
I1926
sba(i__main__
Pixel
p1915
(dp1916
S'y'
I1641
sS'x'
I1641
sS'z'
I1641
sg4
I1641
sba(i__main__
Pixel
p1917
(dp1918
S'y'
I508
sS'x'
I508
sS'z'
I508
sg4
I508
sba(i__main__
Pixel
p1919
(dp1920
S'y'
I741
sS'x'
I741
sS'z'
I741
sg4
I741
sba(i__main__
Pixel
p1921
(dp1922
S'y'
I405
sS'x'
I405
sS'z'
I405
sg4
I405
sba(i__main__
Pixel
p1923
(dp1924
S'y'
I91
sS'x'
I91
sS'z'
I91
sg4
I91
sba(i__main__
Pixel
p1925
(dp1926
S'y'
I1559
sS'x'
I1559
sS'z'
I1559
sg4
I1559
sba(i__main__
Pixel
p1927
(dp1928
S'y'
I1088
sS'x'
I1088
sS'z'
I1088
sg4
I1088
sba(i__main__
Pixel
p1929
(dp1930
S'y'
I681
sS'x'
I681
sS'z'
I681
sg4
I681
sba(i__main__
Pixel
p1931
(dp1932
S'y'
I583
sS'x'
I583
sS'z'
I583
sg4
I583
sba(i__main__
Pixel
p1933
(dp1934
S'y'
I1647
sS'x'
I1647
sS'z'
I1647
sg4
I1647
sba(i__main__
Pixel
p1935
(dp1936
S'y'
I1670
sS'x'
I1670
sS'z'
I1670
sg4
I1670
sba(i__main__
Pixel
p1937
(dp1938
S'y'
I536
sS'x'
I536
sS'z'
I536
sg4
I536
sba(i__main__
Pixel
p1939
(dp1940
S'y'
I1655
sS'x'
I1655
sS'z'
I1655
sg4
I1655
sba(i__main__
Pixel
p1941
(dp1942
S'y'
I843
sS'x'
I843
sS'z'
I843
sg4
I843
sba(i__main__
Pixel
p1943
(dp1944
S'y'
I360
sS'x'
I360
sS'z'
I360
sg4
I360
sba(i__main__
Pixel
p1945
(dp1946
S'y'
I863
sS'x'
I863
sS'z'
I863
sg4
I863
sba(i__main__
Pixel
p1947
(dp1948
S'y'
I1328
sS'x'
I1328
sS'z'
I1328
sg4
I1328
sba(i__main__
Pixel
p1949
(dp1950
S'y'
I321
sS'x'
I321
sS'z'
I321
sg4
I321
sba(i__main__
Pixel
p1951
(dp1952
S'y'
I1143
sS'x'
I1143
sS'z'
I1143
sg4
I1143
sba(i__main__
Pixel
p1953
(dp1954
S'y'
I1414
sS'x'
I1414
sS'z'
I1414
sg4
I1414
sba(i__main__
Pixel
p1955
(dp1956
S'y'
I67
sS'x'
I67
sS'z'
I67
sg4
I67
sba(i__main__
Pixel
p1957
(dp1958
S'y'
I1330
sS'x'
I1330
sS'z'
I1330
sg4
I1330
sba(i__main__
Pixel
p1959
(dp1960
S'y'
I383
sS'x'
I383
sS'z'
I383
sg4
I383
sba(i__main__
Pixel
p1961
(dp1962
S'y'
I1776
sS'x'
I1776
sS'z'
I1776
sg4
I1776
sba(i__main__
Pixel
p1963
(dp1964
S'y'
I648
sS'x'
I648
sS'z'
I648
sg4
I648
sba(i__main__
Pixel
p1965
(dp1966
S'y'
I415
sS'x'
I415
sS'z'
I415
sg4
I415
sba(i__main__
Pixel
p1967
(dp1968
S'y'
I1181
sS'x'
I1181
sS'z'
I1181
sg4
I1181
sba(i__main__
Pixel
p1969
(dp1970
S'y'
I1867
sS'x'
I1867
sS'z'
I1867
sg4
I1867
sba(i__main__
Pixel
p1971
(dp1972
S'y'
I586
sS'x'
I586
sS'z'
I586
sg4
I586
sba(i__main__
Pixel
p1973
(dp1974
S'y'
I1833
sS'x'
I1833
sS'z'
I1833
sg4
I1833
sba(i__main__
Pixel
p1975
(dp1976
S'y'
I1873
sS'x'
I1873
sS'z'
I1873
sg4
I1873
sba(i__main__
Pixel
p1977
(dp1978
S'y'
I1572
sS'x'
I1572
sS'z'
I1572
sg4
I1572
sba(i__main__
Pixel
p1979
(dp1980
S'y'
I798
sS'x'
I798
sS'z'
I798
sg4
I798
sba(i__main__
Pixel
p1981
(dp1982
S'y'
I645
sS'x'
I645
sS'z'
I645
sg4
I645
sba(i__main__
Pixel
p1983
(dp1984
S'y'
I120
sS'x'
I120
sS'z'
I120
sg4
I120
sba(i__main__
Pixel
p1985
(dp1986
S'y'
I1918
sS'x'
I1918
sS'z'
I1918
sg4
I1918
sba(i__main__
Pixel
p1987
(dp1988
S'y'
I888
sS'x'
I888
sS'z'
I888
sg4
I888
sba(i__main__
Pixel
p1989
(dp1990
S'y'
I1587
sS'x'
I1587
sS'z'
I1587
sg4
I1587
sba(i__main__
Pixel
p1991
(dp1992
S'y'
I623
sS'x'
I623
sS'z'
I623
sg4
I623
sba(i__main__
Pixel
p1993
(dp1994
S'y'
I453
sS'x'
I453
sS'z'
I453
sg4
I453
sba(i__main__
Pixel
p1995
(dp1996
S'y'
I1230
sS'x'
I1230
sS'z'
I1230
sg4
I1230
sba(i__main__
Pixel
p1997
(dp1998
S'y'
I1794
sS'x'
I1794
sS'z'
I1794
sg4
I1794
sba(i__main__
Pixel
p1999
(dp2000
S'y'
I232
sS'x'
I232
sS'z'
I232
sg4
I232
sba(i__main__
Pixel
p2001
(dp2002
S'y'
I1541
sS'x'
I1541
sS'z'
I1541
sg4
I1541
sba(i__main__
Pixel
p2003
(dp2004
S'y'
I692
sS'x'
I692
sS'z'
I692
sg4
I692
sba(i__main__
Pixel
p2005
(dp2006
S'y'
I902
sS'x'
I902
sS'z'
I902
sg4
I902
sba(i__main__
Pixel
p2007
(dp2008
S'y'
I909
sS'x'
I909
sS'z'
I909
sg4
I909
sba(i__main__
Pixel
p2009
(dp2010
S'y'
I1638
sS'x'
I1638
sS'z'
I1638
sg4
I1638
sba(i__main__
Pixel
p2011
(dp2012
S'y'
I612
sS'x'
I612
sS'z'
I612
sg4
I612
sba(i__main__
Pixel
p2013
(dp2014
S'y'
I775
sS'x'
I775
sS'z'
I775
sg4
I775
sba(i__main__
Pixel
p2015
(dp2016
S'y'
I1861
sS'x'
I1861
sS'z'
I1861
sg4
I1861
sba(i__main__
Pixel
p2017
(dp2018
S'y'
I92
sS'x'
I92
sS'z'
I92
sg4
I92
sba(i__main__
Pixel
p2019
(dp2020
S'y'
I1492
sS'x'
I1492
sS'z'
I1492
sg4
I1492
sba(i__main__
Pixel
p2021
(dp2022
S'y'
I573
sS'x'
I573
sS'z'
I573
sg4
I573
sba(i__main__
Pixel
p2023
(dp2024
S'y'
I45
sS'x'
I45
sS'z'
I45
sg4
I45
sba(i__main__
Pixel
p2025
(dp2026
S'y'
I1208
sS'x'
I1208
sS'z'
I1208
sg4
I1208
sba(i__main__
Pixel
p2027
(dp2028
S'y'
I1573
sS'x'
I1573
sS'z'
I1573
sg4
I1573
sba(i__main__
Pixel
p2029
(dp2030
S'y'
I1736
sS'x'
I1736
sS'z'
I1736
sg4
I1736
sba(i__main__
Pixel
p2031
(dp2032
S'y'
I950
sS'x'
I950
sS'z'
I950
sg4
I950
sba(i__main__
Pixel
p2033
(dp2034
S'y'
I853
sS'x'
I853
sS'z'
I853
sg4
I853
sba(i__main__
Pixel
p2035
(dp2036
S'y'
I791
sS'x'
I791
sS'z'
I791
sg4
I791
sba(i__main__
Pixel
p2037
(dp2038
S'y'
I1759
sS'x'
I1759
sS'z'
I1759
sg4
I1759
sba(i__main__
Pixel
p2039
(dp2040
S'y'
I331
sS'x'
I331
sS'z'
I331
sg4
I331
sba(i__main__
Pixel
p2041
(dp2042
S'y'
I1564
sS'x'
I1564
sS'z'
I1564
sg4
I1564
sba(i__main__
Pixel
p2043
(dp2044
S'y'
I1100
sS'x'
I1100
sS'z'
I1100
sg4
I1100
sba(i__main__
Pixel
p2045
(dp2046
S'y'
I1669
sS'x'
I1669
sS'z'
I1669
sg4
I1669
sba(i__main__
Pixel
p2047
(dp2048
S'y'
I1568
sS'x'
I1568
sS'z'
I1568
sg4
I1568
sba(i__main__
Pixel
p2049
(dp2050
S'y'
I419
sS'x'
I419
sS'z'
I419
sg4
I419
sba(i__main__
Pixel
p2051
(dp2052
S'y'
I176
sS'x'
I176
sS'z'
I176
sg4
I176
sba(i__main__
Pixel
p2053
(dp2054
S'y'
I1374
sS'x'
I1374
sS'z'
I1374
sg4
I1374
sba(i__main__
Pixel
p2055
(dp2056
S'y'
I1071
sS'x'
I1071
sS'z'
I1071
sg4
I1071
sba(i__main__
Pixel
p2057
(dp2058
S'y'
I878
sS'x'
I878
sS'z'
I878
sg4
I878
sba(i__main__
Pixel
p2059
(dp2060
S'y'
I43
sS'x'
I43
sS'z'
I43
sg4
I43
sba(i__main__
Pixel
p2061
(dp2062
S'y'
I1591
sS'x'
I1591
sS'z'
I1591
sg4
I1591
sba(i__main__
Pixel
p2063
(dp2064
S'y'
I1136
sS'x'
I1136
sS'z'
I1136
sg4
I1136
sba(i__main__
Pixel
p2065
(dp2066
S'y'
I931
sS'x'
I931
sS'z'
I931
sg4
I931
sba(i__main__
Pixel
p2067
(dp2068
S'y'
I744
sS'x'
I744
sS'z'
I744
sg4
I744
sba(i__main__
Pixel
p2069
(dp2070
S'y'
I1725
sS'x'
I1725
sS'z'
I1725
sg4
I1725
sba(i__main__
Pixel
p2071
(dp2072
S'y'
I1971
sS'x'
I1971
sS'z'
I1971
sg4
I1971
sba(i__main__
Pixel
p2073
(dp2074
S'y'
I705
sS'x'
I705
sS'z'
I705
sg4
I705
sba(i__main__
Pixel
p2075
(dp2076
S'y'
I638
sS'x'
I638
sS'z'
I638
sg4
I638
sba(i__main__
Pixel
p2077
(dp2078
S'y'
I1255
sS'x'
I1255
sS'z'
I1255
sg4
I1255
sba(i__main__
Pixel
p2079
(dp2080
S'y'
I1733
sS'x'
I1733
sS'z'
I1733
sg4
I1733
sba(i__main__
Pixel
p2081
(dp2082
S'y'
I1600
sS'x'
I1600
sS'z'
I1600
sg4
I1600
sba(i__main__
Pixel
p2083
(dp2084
S'y'
I835
sS'x'
I835
sS'z'
I835
sg4
I835
sba(i__main__
Pixel
p2085
(dp2086
S'y'
I1318
sS'x'
I1318
sS'z'
I1318
sg4
I1318
sba(i__main__
Pixel
p2087
(dp2088
S'y'
I311
sS'x'
I311
sS'z'
I311
sg4
I311
sba(i__main__
Pixel
p2089
(dp2090
S'y'
I1287
sS'x'
I1287
sS'z'
I1287
sg4
I1287
sba(i__main__
Pixel
p2091
(dp2092
S'y'
I1370
sS'x'
I1370
sS'z'
I1370
sg4
I1370
sba(i__main__
Pixel
p2093
(dp2094
S'y'
I1863
sS'x'
I1863
sS'z'
I1863
sg4
I1863
sba(i__main__
Pixel
p2095
(dp2096
S'y'
I1011
sS'x'
I1011
sS'z'
I1011
sg4
I1011
sba(i__main__
Pixel
p2097
(dp2098
S'y'
I1291
sS'x'
I1291
sS'z'
I1291
sg4
I1291
sba(i__main__
Pixel
p2099
(dp2100
S'y'
I318
sS'x'
I318
sS'z'
I318
sg4
I318
sba(i__main__
Pixel
p2101
(dp2102
S'y'
I1604
sS'x'
I1604
sS'z'
I1604
sg4
I1604
sba(i__main__
Pixel
p2103
(dp2104
S'y'
I400
sS'x'
I400
sS'z'
I400
sg4
I400
sba(i__main__
Pixel
p2105
(dp2106
S'y'
I1124
sS'x'
I1124
sS'z'
I1124
sg4
I1124
sba(i__main__
Pixel
p2107
(dp2108
S'y'
I1841
sS'x'
I1841
sS'z'
I1841
sg4
I1841
sba(i__main__
Pixel
p2109
(dp2110
S'y'
I1964
sS'x'
I1964
sS'z'
I1964
sg4
I1964
sba(i__main__
Pixel
p2111
(dp2112
S'y'
I1708
sS'x'
I1708
sS'z'
I1708
sg4
I1708
sba(i__main__
Pixel
p2113
(dp2114
S'y'
I858
sS'x'
I858
sS'z'
I858
sg4
I858
sba(i__main__
Pixel
p2115
(dp2116
S'y'
I1068
sS'x'
I1068
sS'z'
I1068
sg4
I1068
sba(i__main__
Pixel
p2117
(dp2118
S'y'
I1504
sS'x'
I1504
sS'z'
I1504
sg4
I1504
sba(i__main__
Pixel
p2119
(dp2120
S'y'
I529
sS'x'
I529
sS'z'
I529
sg4
I529
sba(i__main__
Pixel
p2121
(dp2122
S'y'
I1872
sS'x'
I1872
sS'z'
I1872
sg4
I1872
sba(i__main__
Pixel
p2123
(dp2124
S'y'
I102
sS'x'
I102
sS'z'
I102
sg4
I102
sba(i__main__
Pixel
p2125
(dp2126
S'y'
I530
sS'x'
I530
sS'z'
I530
sg4
I530
sba(i__main__
Pixel
p2127
(dp2128
S'y'
I1428
sS'x'
I1428
sS'z'
I1428
sg4
I1428
sba(i__main__
Pixel
p2129
(dp2130
S'y'
I22
sS'x'
I22
sS'z'
I22
sg4
I22
sba(i__main__
Pixel
p2131
(dp2132
S'y'
I1494
sS'x'
I1494
sS'z'
I1494
sg4
I1494
sba(i__main__
Pixel
p2133
(dp2134
S'y'
I566
sS'x'
I566
sS'z'
I566
sg4
I566
sba(i__main__
Pixel
p2135
(dp2136
S'y'
I1101
sS'x'
I1101
sS'z'
I1101
sg4
I1101
sba(i__main__
Pixel
p2137
(dp2138
S'y'
I113
sS'x'
I113
sS'z'
I113
sg4
I113
sba(i__main__
Pixel
p2139
(dp2140
S'y'
I1701
sS'x'
I1701
sS'z'
I1701
sg4
I1701
sba(i__main__
Pixel
p2141
(dp2142
S'y'
I533
sS'x'
I533
sS'z'
I533
sg4
I533
sba(i__main__
Pixel
p2143
(dp2144
S'y'
I1133
sS'x'
I1133
sS'z'
I1133
sg4
I1133
sba(i__main__
Pixel
p2145
(dp2146
S'y'
I1582
sS'x'
I1582
sS'z'
I1582
sg4
I1582
sba(i__main__
Pixel
p2147
(dp2148
S'y'
I1768
sS'x'
I1768
sS'z'
I1768
sg4
I1768
sba(i__main__
Pixel
p2149
(dp2150
S'y'
I63
sS'x'
I63
sS'z'
I63
sg4
I63
sba(i__main__
Pixel
p2151
(dp2152
S'y'
I8
sS'x'
I8
sS'z'
I8
sg4
I8
sba(i__main__
Pixel
p2153
(dp2154
S'y'
I747
sS'x'
I747
sS'z'
I747
sg4
I747
sba(i__main__
Pixel
p2155
(dp2156
S'y'
I1857
sS'x'
I1857
sS'z'
I1857
sg4
I1857
sba(i__main__
Pixel
p2157
(dp2158
S'y'
I557
sS'x'
I557
sS'z'
I557
sg4
I557
sba(i__main__
Pixel
p2159
(dp2160
S'y'
I1448
sS'x'
I1448
sS'z'
I1448
sg4
I1448
sba(i__main__
Pixel
p2161
(dp2162
S'y'
I1816
sS'x'
I1816
sS'z'
I1816
sg4
I1816
sba(i__main__
Pixel
p2163
(dp2164
S'y'
I1781
sS'x'
I1781
sS'z'
I1781
sg4
I1781
sba(i__main__
Pixel
p2165
(dp2166
S'y'
I1919
sS'x'
I1919
sS'z'
I1919
sg4
I1919
sba(i__main__
Pixel
p2167
(dp2168
S'y'
I66
sS'x'
I66
sS'z'
I66
sg4
I66
sba(i__main__
Pixel
p2169
(dp2170
S'y'
I1209
sS'x'
I1209
sS'z'
I1209
sg4
I1209
sba(i__main__
Pixel
p2171
(dp2172
S'y'
I220
sS'x'
I220
sS'z'
I220
sg4
I220
sba(i__main__
Pixel
p2173
(dp2174
S'y'
I1715
sS'x'
I1715
sS'z'
I1715
sg4
I1715
sba(i__main__
Pixel
p2175
(dp2176
S'y'
I1821
sS'x'
I1821
sS'z'
I1821
sg4
I1821
sba(i__main__
Pixel
p2177
(dp2178
S'y'
I668
sS'x'
I668
sS'z'
I668
sg4
I668
sba(i__main__
Pixel
p2179
(dp2180
S'y'
I381
sS'x'
I381
sS'z'
I381
sg4
I381
sba(i__main__
Pixel
p2181
(dp2182
S'y'
I833
sS'x'
I833
sS'z'
I833
sg4
I833
sba(i__main__
Pixel
p2183
(dp2184
S'y'
I1942
sS'x'
I1942
sS'z'
I1942
sg4
I1942
sba(i__main__
Pixel
p2185
(dp2186
S'y'
I121
sS'x'
I121
sS'z'
I121
sg4
I121
sba(i__main__
Pixel
p2187
(dp2188
S'y'
I1693
sS'x'
I1693
sS'z'
I1693
sg4
I1693
sba(i__main__
Pixel
p2189
(dp2190
S'y'
I1459
sS'x'
I1459
sS'z'
I1459
sg4
I1459
sba(i__main__
Pixel
p2191
(dp2192
S'y'
I1469
sS'x'
I1469
sS'z'
I1469
sg4
I1469
sba(i__main__
Pixel
p2193
(dp2194
S'y'
I1921
sS'x'
I1921
sS'z'
I1921
sg4
I1921
sba(i__main__
Pixel
p2195
(dp2196
S'y'
I1610
sS'x'
I1610
sS'z'
I1610
sg4
I1610
sba(i__main__
Pixel
p2197
(dp2198
S'y'
I993
sS'x'
I993
sS'z'
I993
sg4
I993
sba(i__main__
Pixel
p2199
(dp2200
S'y'
I134
sS'x'
I134
sS'z'
I134
sg4
I134
sba(i__main__
Pixel
p2201
(dp2202
S'y'
I242
sS'x'
I242
sS'z'
I242
sg4
I242
sba(i__main__
Pixel
p2203
(dp2204
S'y'
I559
sS'x'
I559
sS'z'
I559
sg4
I559
sba(i__main__
Pixel
p2205
(dp2206
S'y'
I541
sS'x'
I541
sS'z'
I541
sg4
I541
sba(i__main__
Pixel
p2207
(dp2208
S'y'
I1700
sS'x'
I1700
sS'z'
I1700
sg4
I1700
sba(i__main__
Pixel
p2209
(dp2210
S'y'
I1117
sS'x'
I1117
sS'z'
I1117
sg4
I1117
sba(i__main__
Pixel
p2211
(dp2212
S'y'
I912
sS'x'
I912
sS'z'
I912
sg4
I912
sba(i__main__
Pixel
p2213
(dp2214
S'y'
I776
sS'x'
I776
sS'z'
I776
sg4
I776
sba(i__main__
Pixel
p2215
(dp2216
S'y'
I1850
sS'x'
I1850
sS'z'
I1850
sg4
I1850
sba(i__main__
Pixel
p2217
(dp2218
S'y'
I1589
sS'x'
I1589
sS'z'
I1589
sg4
I1589
sba(i__main__
Pixel
p2219
(dp2220
S'y'
I1970
sS'x'
I1970
sS'z'
I1970
sg4
I1970
sba(i__main__
Pixel
p2221
(dp2222
S'y'
I867
sS'x'
I867
sS'z'
I867
sg4
I867
sba(i__main__
Pixel
p2223
(dp2224
S'y'
I537
sS'x'
I537
sS'z'
I537
sg4
I537
sba(i__main__
Pixel
p2225
(dp2226
S'y'
I1256
sS'x'
I1256
sS'z'
I1256
sg4
I1256
sba(i__main__
Pixel
p2227
(dp2228
S'y'
I1567
sS'x'
I1567
sS'z'
I1567
sg4
I1567
sba(i__main__
Pixel
p2229
(dp2230
S'y'
I60
sS'x'
I60
sS'z'
I60
sg4
I60
sba(i__main__
Pixel
p2231
(dp2232
S'y'
I74
sS'x'
I74
sS'z'
I74
sg4
I74
sba(i__main__
Pixel
p2233
(dp2234
S'y'
I507
sS'x'
I507
sS'z'
I507
sg4
I507
sba(i__main__
Pixel
p2235
(dp2236
S'y'
I52
sS'x'
I52
sS'z'
I52
sg4
I52
sba(i__main__
Pixel
p2237
(dp2238
S'y'
I1661
sS'x'
I1661
sS'z'
I1661
sg4
I1661
sba(i__main__
Pixel
p2239
(dp2240
S'y'
I574
sS'x'
I574
sS'z'
I574
sg4
I574
sba(i__main__
Pixel
p2241
(dp2242
S'y'
I968
sS'x'
I968
sS'z'
I968
sg4
I968
sba(i__main__
Pixel
p2243
(dp2244
S'y'
I420
sS'x'
I420
sS'z'
I420
sg4
I420
sba(i__main__
Pixel
p2245
(dp2246
S'y'
I1485
sS'x'
I1485
sS'z'
I1485
sg4
I1485
sba(i__main__
Pixel
p2247
(dp2248
S'y'
I1367
sS'x'
I1367
sS'z'
I1367
sg4
I1367
sba(i__main__
Pixel
p2249
(dp2250
S'y'
I1395
sS'x'
I1395
sS'z'
I1395
sg4
I1395
sba(i__main__
Pixel
p2251
(dp2252
S'y'
I949
sS'x'
I949
sS'z'
I949
sg4
I949
sba(i__main__
Pixel
p2253
(dp2254
S'y'
I1866
sS'x'
I1866
sS'z'
I1866
sg4
I1866
sba(i__main__
Pixel
p2255
(dp2256
S'y'
I813
sS'x'
I813
sS'z'
I813
sg4
I813
sba(i__main__
Pixel
p2257
(dp2258
S'y'
I1463
sS'x'
I1463
sS'z'
I1463
sg4
I1463
sba(i__main__
Pixel
p2259
(dp2260
S'y'
I838
sS'x'
I838
sS'z'
I838
sg4
I838
sba(i__main__
Pixel
p2261
(dp2262
S'y'
I461
sS'x'
I461
sS'z'
I461
sg4
I461
sba(i__main__
Pixel
p2263
(dp2264
S'y'
I428
sS'x'
I428
sS'z'
I428
sg4
I428
sba(i__main__
Pixel
p2265
(dp2266
S'y'
I191
sS'x'
I191
sS'z'
I191
sg4
I191
sba(i__main__
Pixel
p2267
(dp2268
S'y'
I1953
sS'x'
I1953
sS'z'
I1953
sg4
I1953
sba(i__main__
Pixel
p2269
(dp2270
S'y'
I1171
sS'x'
I1171
sS'z'
I1171
sg4
I1171
sba(i__main__
Pixel
p2271
(dp2272
S'y'
I698
sS'x'
I698
sS'z'
I698
sg4
I698
sba(i__main__
Pixel
p2273
(dp2274
S'y'
I652
sS'x'
I652
sS'z'
I652
sg4
I652
sba(i__main__
Pixel
p2275
(dp2276
S'y'
I1295
sS'x'
I1295
sS'z'
I1295
sg4
I1295
sba(i__main__
Pixel
p2277
(dp2278
S'y'
I353
sS'x'
I353
sS'z'
I353
sg4
I353
sba(i__main__
Pixel
p2279
(dp2280
S'y'
I20
sS'x'
I20
sS'z'
I20
sg4
I20
sba(i__main__
Pixel
p2281
(dp2282
S'y'
I368
sS'x'
I368
sS'z'
I368
sg4
I368
sba(i__main__
Pixel
p2283
(dp2284
S'y'
I587
sS'x'
I587
sS'z'
I587
sg4
I587
sba(i__main__
Pixel
p2285
(dp2286
S'y'
I1880
sS'x'
I1880
sS'z'
I1880
sg4
I1880
sba(i__main__
Pixel
p2287
(dp2288
S'y'
I1380
sS'x'
I1380
sS'z'
I1380
sg4
I1380
sba(i__main__
Pixel
p2289
(dp2290
S'y'
I1753
sS'x'
I1753
sS'z'
I1753
sg4
I1753
sba(i__main__
Pixel
p2291
(dp2292
S'y'
I1268
sS'x'
I1268
sS'z'
I1268
sg4
I1268
sba(i__main__
Pixel
p2293
(dp2294
S'y'
I689
sS'x'
I689
sS'z'
I689
sg4
I689
sba(i__main__
Pixel
p2295
(dp2296
S'y'
I216
sS'x'
I216
sS'z'
I216
sg4
I216
sba(i__main__
Pixel
p2297
(dp2298
S'y'
I696
sS'x'
I696
sS'z'
I696
sg4
I696
sba(i__main__
Pixel
p2299
(dp2300
S'y'
I1632
sS'x'
I1632
sS'z'
I1632
sg4
I1632
sba(i__main__
Pixel
p2301
(dp2302
S'y'
I757
sS'x'
I757
sS'z'
I757
sg4
I757
sba(i__main__
Pixel
p2303
(dp2304
S'y'
I1065
sS'x'
I1065
sS'z'
I1065
sg4
I1065
sba(i__main__
Pixel
p2305
(dp2306
S'y'
I1667
sS'x'
I1667
sS'z'
I1667
sg4
I1667
sba(i__main__
Pixel
p2307
(dp2308
S'y'
I1407
sS'x'
I1407
sS'z'
I1407
sg4
I1407
sba(i__main__
Pixel
p2309
(dp2310
S'y'
I523
sS'x'
I523
sS'z'
I523
sg4
I523
sba(i__main__
Pixel
p2311
(dp2312
S'y'
I1050
sS'x'
I1050
sS'z'
I1050
sg4
I1050
sba(i__main__
Pixel
p2313
(dp2314
S'y'
I963
sS'x'
I963
sS'z'
I963
sg4
I963
sba(i__main__
Pixel
p2315
(dp2316
S'y'
I375
sS'x'
I375
sS'z'
I375
sg4
I375
sba(i__main__
Pixel
p2317
(dp2318
S'y'
I1496
sS'x'
I1496
sS'z'
I1496
sg4
I1496
sba(i__main__
Pixel
p2319
(dp2320
S'y'
I855
sS'x'
I855
sS'z'
I855
sg4
I855
sba(i__main__
Pixel
p2321
(dp2322
S'y'
I1846
sS'x'
I1846
sS'z'
I1846
sg4
I1846
sba(i__main__
Pixel
p2323
(dp2324
S'y'
I276
sS'x'
I276
sS'z'
I276
sg4
I276
sba(i__main__
Pixel
p2325
(dp2326
S'y'
I1762
sS'x'
I1762
sS'z'
I1762
sg4
I1762
sba(i__main__
Pixel
p2327
(dp2328
S'y'
I1257
sS'x'
I1257
sS'z'
I1257
sg4
I1257
sba(i__main__
Pixel
p2329
(dp2330
S'y'
I1435
sS'x'
I1435
sS'z'
I1435
sg4
I1435
sba(i__main__
Pixel
p2331
(dp2332
S'y'
I1018
sS'x'
I1018
sS'z'
I1018
sg4
I1018
sba(i__main__
Pixel
p2333
(dp2334
S'y'
I342
sS'x'
I342
sS'z'
I342
sg4
I342
sba(i__main__
Pixel
p2335
(dp2336
S'y'
I1535
sS'x'
I1535
sS'z'
I1535
sg4
I1535
sba(i__main__
Pixel
p2337
(dp2338
S'y'
I1766
sS'x'
I1766
sS'z'
I1766
sg4
I1766
sba(i__main__
Pixel
p2339
(dp2340
S'y'
I492
sS'x'
I492
sS'z'
I492
sg4
I492
sba(i__main__
Pixel
p2341
(dp2342
S'y'
I1814
sS'x'
I1814
sS'z'
I1814
sg4
I1814
sba(i__main__
Pixel
p2343
(dp2344
S'y'
I89
sS'x'
I89
sS'z'
I89
sg4
I89
sba(i__main__
Pixel
p2345
(dp2346
S'y'
I631
sS'x'
I631
sS'z'
I631
sg4
I631
sba(i__main__
Pixel
p2347
(dp2348
S'y'
I1286
sS'x'
I1286
sS'z'
I1286
sg4
I1286
sba(i__main__
Pixel
p2349
(dp2350
S'y'
I330
sS'x'
I330
sS'z'
I330
sg4
I330
sba(i__main__
Pixel
p2351
(dp2352
S'y'
I261
sS'x'
I261
sS'z'
I261
sg4
I261
sba(i__main__
Pixel
p2353
(dp2354
S'y'
I1817
sS'x'
I1817
sS'z'
I1817
sg4
I1817
sba(i__main__
Pixel
p2355
(dp2356
S'y'
I167
sS'x'
I167
sS'z'
I167
sg4
I167
sba(i__main__
Pixel
p2357
(dp2358
S'y'
I1073
sS'x'
I1073
sS'z'
I1073
sg4
I1073
sba(i__main__
Pixel
p2359
(dp2360
S'y'
I590
sS'x'
I590
sS'z'
I590
sg4
I590
sba(i__main__
Pixel
p2361
(dp2362
S'y'
I171
sS'x'
I171
sS'z'
I171
sg4
I171
sba(i__main__
Pixel
p2363
(dp2364
S'y'
I93
sS'x'
I93
sS'z'
I93
sg4
I93
sba(i__main__
Pixel
p2365
(dp2366
S'y'
I367
sS'x'
I367
sS'z'
I367
sg4
I367
sba(i__main__
Pixel
p2367
(dp2368
S'y'
I1185
sS'x'
I1185
sS'z'
I1185
sg4
I1185
sba(i__main__
Pixel
p2369
(dp2370
S'y'
I244
sS'x'
I244
sS'z'
I244
sg4
I244
sba(i__main__
Pixel
p2371
(dp2372
S'y'
I248
sS'x'
I248
sS'z'
I248
sg4
I248
sba(i__main__
Pixel
p2373
(dp2374
S'y'
I990
sS'x'
I990
sS'z'
I990
sg4
I990
sba(i__main__
Pixel
p2375
(dp2376
S'y'
I1775
sS'x'
I1775
sS'z'
I1775
sg4
I1775
sba(i__main__
Pixel
p2377
(dp2378
S'y'
I697
sS'x'
I697
sS'z'
I697
sg4
I697
sba(i__main__
Pixel
p2379
(dp2380
S'y'
I1066
sS'x'
I1066
sS'z'
I1066
sg4
I1066
sba(i__main__
Pixel
p2381
(dp2382
S'y'
I1906
sS'x'
I1906
sS'z'
I1906
sg4
I1906
sba(i__main__
Pixel
p2383
(dp2384
S'y'
I300
sS'x'
I300
sS'z'
I300
sg4
I300
sba(i__main__
Pixel
p2385
(dp2386
S'y'
I1006
sS'x'
I1006
sS'z'
I1006
sg4
I1006
sba(i__main__
Pixel
p2387
(dp2388
S'y'
I1393
sS'x'
I1393
sS'z'
I1393
sg4
I1393
sba(i__main__
Pixel
p2389
(dp2390
S'y'
I1673
sS'x'
I1673
sS'z'
I1673
sg4
I1673
sba(i__main__
Pixel
p2391
(dp2392
S'y'
I451
sS'x'
I451
sS'z'
I451
sg4
I451
sba(i__main__
Pixel
p2393
(dp2394
S'y'
I821
sS'x'
I821
sS'z'
I821
sg4
I821
sba(i__main__
Pixel
p2395
(dp2396
S'y'
I1332
sS'x'
I1332
sS'z'
I1332
sg4
I1332
sba(i__main__
Pixel
p2397
(dp2398
S'y'
I206
sS'x'
I206
sS'z'
I206
sg4
I206
sba(i__main__
Pixel
p2399
(dp2400
S'y'
I442
sS'x'
I442
sS'z'
I442
sg4
I442
sba(i__main__
Pixel
p2401
(dp2402
S'y'
I1267
sS'x'
I1267
sS'z'
I1267
sg4
I1267
sba(i__main__
Pixel
p2403
(dp2404
S'y'
I619
sS'x'
I619
sS'z'
I619
sg4
I619
sba(i__main__
Pixel
p2405
(dp2406
S'y'
I491
sS'x'
I491
sS'z'
I491
sg4
I491
sba(i__main__
Pixel
p2407
(dp2408
S'y'
I1231
sS'x'
I1231
sS'z'
I1231
sg4
I1231
sba(i__main__
Pixel
p2409
(dp2410
S'y'
I205
sS'x'
I205
sS'z'
I205
sg4
I205
sba(i__main__
Pixel
p2411
(dp2412
S'y'
I1585
sS'x'
I1585
sS'z'
I1585
sg4
I1585
sba(i__main__
Pixel
p2413
(dp2414
S'y'
I989
sS'x'
I989
sS'z'
I989
sg4
I989
sba(i__main__
Pixel
p2415
(dp2416
S'y'
I1875
sS'x'
I1875
sS'z'
I1875
sg4
I1875
sba(i__main__
Pixel
p2417
(dp2418
S'y'
I1362
sS'x'
I1362
sS'z'
I1362
sg4
I1362
sba(i__main__
Pixel
p2419
(dp2420
S'y'
I1215
sS'x'
I1215
sS'z'
I1215
sg4
I1215
sba(i__main__
Pixel
p2421
(dp2422
S'y'
I177
sS'x'
I177
sS'z'
I177
sg4
I177
sba(i__main__
Pixel
p2423
(dp2424
S'y'
I1263
sS'x'
I1263
sS'z'
I1263
sg4
I1263
sba(i__main__
Pixel
p2425
(dp2426
S'y'
I361
sS'x'
I361
sS'z'
I361
sg4
I361
sba(i__main__
Pixel
p2427
(dp2428
S'y'
I1361
sS'x'
I1361
sS'z'
I1361
sg4
I1361
sba(i__main__
Pixel
p2429
(dp2430
S'y'
I1629
sS'x'
I1629
sS'z'
I1629
sg4
I1629
sba(i__main__
Pixel
p2431
(dp2432
S'y'
I1682
sS'x'
I1682
sS'z'
I1682
sg4
I1682
sba(i__main__
Pixel
p2433
(dp2434
S'y'
I262
sS'x'
I262
sS'z'
I262
sg4
I262
sba(i__main__
Pixel
p2435
(dp2436
S'y'
I1893
sS'x'
I1893
sS'z'
I1893
sg4
I1893
sba(i__main__
Pixel
p2437
(dp2438
S'y'
I161
sS'x'
I161
sS'z'
I161
sg4
I161
sba(i__main__
Pixel
p2439
(dp2440
S'y'
I1615
sS'x'
I1615
sS'z'
I1615
sg4
I1615
sba(i__main__
Pixel
p2441
(dp2442
S'y'
I731
sS'x'
I731
sS'z'
I731
sg4
I731
sba(i__main__
Pixel
p2443
(dp2444
S'y'
I806
sS'x'
I806
sS'z'
I806
sg4
I806
sba(i__main__
Pixel
p2445
(dp2446
S'y'
I1731
sS'x'
I1731
sS'z'
I1731
sg4
I1731
sba(i__main__
Pixel
p2447
(dp2448
S'y'
I1877
sS'x'
I1877
sS'z'
I1877
sg4
I1877
sba(i__main__
Pixel
p2449
(dp2450
S'y'
I235
sS'x'
I235
sS'z'
I235
sg4
I235
sba(i__main__
Pixel
p2451
(dp2452
S'y'
I774
sS'x'
I774
sS'z'
I774
sg4
I774
sba(i__main__
Pixel
p2453
(dp2454
S'y'
I818
sS'x'
I818
sS'z'
I818
sg4
I818
sba(i__main__
Pixel
p2455
(dp2456
S'y'
I479
sS'x'
I479
sS'z'
I479
sg4
I479
sba(i__main__
Pixel
p2457
(dp2458
S'y'
I1170
sS'x'
I1170
sS'z'
I1170
sg4
I1170
sba(i__main__
Pixel
p2459
(dp2460
S'y'
I1882
sS'x'
I1882
sS'z'
I1882
sg4
I1882
sba(i__main__
Pixel
p2461
(dp2462
S'y'
I1754
sS'x'
I1754
sS'z'
I1754
sg4
I1754
sba(i__main__
Pixel
p2463
(dp2464
S'y'
I95
sS'x'
I95
sS'z'
I95
sg4
I95
sba(i__main__
Pixel
p2465
(dp2466
S'y'
I1354
sS'x'
I1354
sS'z'
I1354
sg4
I1354
sba(i__main__
Pixel
p2467
(dp2468
S'y'
I1430
sS'x'
I1430
sS'z'
I1430
sg4
I1430
sba(i__main__
Pixel
p2469
(dp2470
S'y'
I1990
sS'x'
I1990
sS'z'
I1990
sg4
I1990
sba(i__main__
Pixel
p2471
(dp2472
S'y'
I471
sS'x'
I471
sS'z'
I471
sg4
I471
sba(i__main__
Pixel
p2473
(dp2474
S'y'
I1862
sS'x'
I1862
sS'z'
I1862
sg4
I1862
sba(i__main__
Pixel
p2475
(dp2476
S'y'
I377
sS'x'
I377
sS'z'
I377
sg4
I377
sba(i__main__
Pixel
p2477
(dp2478
S'y'
I1656
sS'x'
I1656
sS'z'
I1656
sg4
I1656
sba(i__main__
Pixel
p2479
(dp2480
S'y'
I653
sS'x'
I653
sS'z'
I653
sg4
I653
sba(i__main__
Pixel
p2481
(dp2482
S'y'
I1980
sS'x'
I1980
sS'z'
I1980
sg4
I1980
sba(i__main__
Pixel
p2483
(dp2484
S'y'
I615
sS'x'
I615
sS'z'
I615
sg4
I615
sba(i__main__
Pixel
p2485
(dp2486
S'y'
I1188
sS'x'
I1188
sS'z'
I1188
sg4
I1188
sba(i__main__
Pixel
p2487
(dp2488
S'y'
I402
sS'x'
I402
sS'z'
I402
sg4
I402
sba(i__main__
Pixel
p2489
(dp2490
S'y'
I992
sS'x'
I992
sS'z'
I992
sg4
I992
sba(i__main__
Pixel
p2491
(dp2492
S'y'
I396
sS'x'
I396
sS'z'
I396
sg4
I396
sba(i__main__
Pixel
p2493
(dp2494
S'y'
I920
sS'x'
I920
sS'z'
I920
sg4
I920
sba(i__main__
Pixel
p2495
(dp2496
S'y'
I1621
sS'x'
I1621
sS'z'
I1621
sg4
I1621
sba(i__main__
Pixel
p2497
(dp2498
S'y'
I1180
sS'x'
I1180
sS'z'
I1180
sg4
I1180
sba(i__main__
Pixel
p2499
(dp2500
S'y'
I670
sS'x'
I670
sS'z'
I670
sg4
I670
sba(i__main__
Pixel
p2501
(dp2502
S'y'
I1895
sS'x'
I1895
sS'z'
I1895
sg4
I1895
sba(i__main__
Pixel
p2503
(dp2504
S'y'
I44
sS'x'
I44
sS'z'
I44
sg4
I44
sba(i__main__
Pixel
p2505
(dp2506
S'y'
I1566
sS'x'
I1566
sS'z'
I1566
sg4
I1566
sba(i__main__
Pixel
p2507
(dp2508
S'y'
I718
sS'x'
I718
sS'z'
I718
sg4
I718
sba(i__main__
Pixel
p2509
(dp2510
S'y'
I1041
sS'x'
I1041
sS'z'
I1041
sg4
I1041
sba(i__main__
Pixel
p2511
(dp2512
S'y'
I1801
sS'x'
I1801
sS'z'
I1801
sg4
I1801
sba(i__main__
Pixel
p2513
(dp2514
S'y'
I53
sS'x'
I53
sS'z'
I53
sg4
I53
sba(i__main__
Pixel
p2515
(dp2516
S'y'
I1105
sS'x'
I1105
sS'z'
I1105
sg4
I1105
sba(i__main__
Pixel
p2517
(dp2518
S'y'
I290
sS'x'
I290
sS'z'
I290
sg4
I290
sba(i__main__
Pixel
p2519
(dp2520
S'y'
I753
sS'x'
I753
sS'z'
I753
sg4
I753
sba(i__main__
Pixel
p2521
(dp2522
S'y'
I727
sS'x'
I727
sS'z'
I727
sg4
I727
sba(i__main__
Pixel
p2523
(dp2524
S'y'
I49
sS'x'
I49
sS'z'
I49
sg4
I49
sba(i__main__
Pixel
p2525
(dp2526
S'y'
I739
sS'x'
I739
sS'z'
I739
sg4
I739
sba(i__main__
Pixel
p2527
(dp2528
S'y'
I411
sS'x'
I411
sS'z'
I411
sg4
I411
sba(i__main__
Pixel
p2529
(dp2530
S'y'
I1788
sS'x'
I1788
sS'z'
I1788
sg4
I1788
sba(i__main__
Pixel
p2531
(dp2532
S'y'
I350
sS'x'
I350
sS'z'
I350
sg4
I350
sba(i__main__
Pixel
p2533
(dp2534
S'y'
I1437
sS'x'
I1437
sS'z'
I1437
sg4
I1437
sba(i__main__
Pixel
p2535
(dp2536
S'y'
I693
sS'x'
I693
sS'z'
I693
sg4
I693
sba(i__main__
Pixel
p2537
(dp2538
S'y'
I71
sS'x'
I71
sS'z'
I71
sg4
I71
sba(i__main__
Pixel
p2539
(dp2540
S'y'
I1835
sS'x'
I1835
sS'z'
I1835
sg4
I1835
sba(i__main__
Pixel
p2541
(dp2542
S'y'
I408
sS'x'
I408
sS'z'
I408
sg4
I408
sba(i__main__
Pixel
p2543
(dp2544
S'y'
I15
sS'x'
I15
sS'z'
I15
sg4
I15
sba(i__main__
Pixel
p2545
(dp2546
S'y'
I329
sS'x'
I329
sS'z'
I329
sg4
I329
sba(i__main__
Pixel
p2547
(dp2548
S'y'
I1146
sS'x'
I1146
sS'z'
I1146
sg4
I1146
sba(i__main__
Pixel
p2549
(dp2550
S'y'
I1597
sS'x'
I1597
sS'z'
I1597
sg4
I1597
sba(i__main__
Pixel
p2551
(dp2552
S'y'
I814
sS'x'
I814
sS'z'
I814
sg4
I814
sba(i__main__
Pixel
p2553
(dp2554
S'y'
I1595
sS'x'
I1595
sS'z'
I1595
sg4
I1595
sba(i__main__
Pixel
p2555
(dp2556
S'y'
I1932
sS'x'
I1932
sS'z'
I1932
sg4
I1932
sba(i__main__
Pixel
p2557
(dp2558
S'y'
I441
sS'x'
I441
sS'z'
I441
sg4
I441
sba(i__main__
Pixel
p2559
(dp2560
S'y'
I371
sS'x'
I371
sS'z'
I371
sg4
I371
sba(i__main__
Pixel
p2561
(dp2562
S'y'
I146
sS'x'
I146
sS'z'
I146
sg4
I146
sba(i__main__
Pixel
p2563
(dp2564
S'y'
I312
sS'x'
I312
sS'z'
I312
sg4
I312
sba(i__main__
Pixel
p2565
(dp2566
S'y'
I700
sS'x'
I700
sS'z'
I700
sg4
I700
sba(i__main__
Pixel
p2567
(dp2568
S'y'
I1583
sS'x'
I1583
sS'z'
I1583
sg4
I1583
sba(i__main__
Pixel
p2569
(dp2570
S'y'
I1916
sS'x'
I1916
sS'z'
I1916
sg4
I1916
sba(i__main__
Pixel
p2571
(dp2572
S'y'
I84
sS'x'
I84
sS'z'
I84
sg4
I84
sba(i__main__
Pixel
p2573
(dp2574
S'y'
I1972
sS'x'
I1972
sS'z'
I1972
sg4
I1972
sba(i__main__
Pixel
p2575
(dp2576
S'y'
I1602
sS'x'
I1602
sS'z'
I1602
sg4
I1602
sba(i__main__
Pixel
p2577
(dp2578
S'y'
I209
sS'x'
I209
sS'z'
I209
sg4
I209
sba(i__main__
Pixel
p2579
(dp2580
S'y'
I449
sS'x'
I449
sS'z'
I449
sg4
I449
sba(i__main__
Pixel
p2581
(dp2582
S'y'
I1859
sS'x'
I1859
sS'z'
I1859
sg4
I1859
sba(i__main__
Pixel
p2583
(dp2584
S'y'
I565
sS'x'
I565
sS'z'
I565
sg4
I565
sba(i__main__
Pixel
p2585
(dp2586
S'y'
I1643
sS'x'
I1643
sS'z'
I1643
sg4
I1643
sba(i__main__
Pixel
p2587
(dp2588
S'y'
I1087
sS'x'
I1087
sS'z'
I1087
sg4
I1087
sba(i__main__
Pixel
p2589
(dp2590
S'y'
I1369
sS'x'
I1369
sS'z'
I1369
sg4
I1369
sba(i__main__
Pixel
p2591
(dp2592
S'y'
I1636
sS'x'
I1636
sS'z'
I1636
sg4
I1636
sba(i__main__
Pixel
p2593
(dp2594
S'y'
I714
sS'x'
I714
sS'z'
I714
sg4
I714
sba(i__main__
Pixel
p2595
(dp2596
S'y'
I1416
sS'x'
I1416
sS'z'
I1416
sg4
I1416
sba(i__main__
Pixel
p2597
(dp2598
S'y'
I394
sS'x'
I394
sS'z'
I394
sg4
I394
sba(i__main__
Pixel
p2599
(dp2600
S'y'
I1660
sS'x'
I1660
sS'z'
I1660
sg4
I1660
sba(i__main__
Pixel
p2601
(dp2602
S'y'
I1300
sS'x'
I1300
sS'z'
I1300
sg4
I1300
sba(i__main__
Pixel
p2603
(dp2604
S'y'
I907
sS'x'
I907
sS'z'
I907
sg4
I907
sba(i__main__
Pixel
p2605
(dp2606
S'y'
I86
sS'x'
I86
sS'z'
I86
sg4
I86
sba(i__main__
Pixel
p2607
(dp2608
S'y'
I267
sS'x'
I267
sS'z'
I267
sg4
I267
sba(i__main__
Pixel
p2609
(dp2610
S'y'
I1969
sS'x'
I1969
sS'z'
I1969
sg4
I1969
sba(i__main__
Pixel
p2611
(dp2612
S'y'
I938
sS'x'
I938
sS'z'
I938
sg4
I938
sba(i__main__
Pixel
p2613
(dp2614
S'y'
I591
sS'x'
I591
sS'z'
I591
sg4
I591
sba(i__main__
Pixel
p2615
(dp2616
S'y'
I1262
sS'x'
I1262
sS'z'
I1262
sg4
I1262
sba(i__main__
Pixel
p2617
(dp2618
S'y'
I190
sS'x'
I190
sS'z'
I190
sg4
I190
sba(i__main__
Pixel
p2619
(dp2620
S'y'
I156
sS'x'
I156
sS'z'
I156
sg4
I156
sba(i__main__
Pixel
p2621
(dp2622
S'y'
I789
sS'x'
I789
sS'z'
I789
sg4
I789
sba(i__main__
Pixel
p2623
(dp2624
S'y'
I795
sS'x'
I795
sS'z'
I795
sg4
I795
sba(i__main__
Pixel
p2625
(dp2626
S'y'
I357
sS'x'
I357
sS'z'
I357
sg4
I357
sba(i__main__
Pixel
p2627
(dp2628
S'y'
I1674
sS'x'
I1674
sS'z'
I1674
sg4
I1674
sba(i__main__
Pixel
p2629
(dp2630
S'y'
I431
sS'x'
I431
sS'z'
I431
sg4
I431
sba(i__main__
Pixel
p2631
(dp2632
S'y'
I268
sS'x'
I268
sS'z'
I268
sg4
I268
sba(i__main__
Pixel
p2633
(dp2634
S'y'
I1987
sS'x'
I1987
sS'z'
I1987
sg4
I1987
sba(i__main__
Pixel
p2635
(dp2636
S'y'
I27
sS'x'
I27
sS'z'
I27
sg4
I27
sba(i__main__
Pixel
p2637
(dp2638
S'y'
I1628
sS'x'
I1628
sS'z'
I1628
sg4
I1628
sba(i__main__
Pixel
p2639
(dp2640
S'y'
I889
sS'x'
I889
sS'z'
I889
sg4
I889
sba(i__main__
Pixel
p2641
(dp2642
S'y'
I894
sS'x'
I894
sS'z'
I894
sg4
I894
sba(i__main__
Pixel
p2643
(dp2644
S'y'
I430
sS'x'
I430
sS'z'
I430
sg4
I430
sba(i__main__
Pixel
p2645
(dp2646
S'y'
I662
sS'x'
I662
sS'z'
I662
sg4
I662
sba(i__main__
Pixel
p2647
(dp2648
S'y'
I1387
sS'x'
I1387
sS'z'
I1387
sg4
I1387
sba(i__main__
Pixel
p2649
(dp2650
S'y'
I1359
sS'x'
I1359
sS'z'
I1359
sg4
I1359
sba(i__main__
Pixel
p2651
(dp2652
S'y'
I922
sS'x'
I922
sS'z'
I922
sg4
I922
sba(i__main__
Pixel
p2653
(dp2654
S'y'
I1240
sS'x'
I1240
sS'z'
I1240
sg4
I1240
sba(i__main__
Pixel
p2655
(dp2656
S'y'
I1097
sS'x'
I1097
sS'z'
I1097
sg4
I1097
sba(i__main__
Pixel
p2657
(dp2658
S'y'
I617
sS'x'
I617
sS'z'
I617
sg4
I617
sba(i__main__
Pixel
p2659
(dp2660
S'y'
I208
sS'x'
I208
sS'z'
I208
sg4
I208
sba(i__main__
Pixel
p2661
(dp2662
S'y'
I1424
sS'x'
I1424
sS'z'
I1424
sg4
I1424
sba(i__main__
Pixel
p2663
(dp2664
S'y'
I435
sS'x'
I435
sS'z'
I435
sg4
I435
sba(i__main__
Pixel
p2665
(dp2666
S'y'
I1723
sS'x'
I1723
sS'z'
I1723
sg4
I1723
sba(i__main__
Pixel
p2667
(dp2668
S'y'
I233
sS'x'
I233
sS'z'
I233
sg4
I233
sba(i__main__
Pixel
p2669
(dp2670
S'y'
I1698
sS'x'
I1698
sS'z'
I1698
sg4
I1698
sba(i__main__
Pixel
p2671
(dp2672
S'y'
I874
sS'x'
I874
sS'z'
I874
sg4
I874
sba(i__main__
Pixel
p2673
(dp2674
S'y'
I940
sS'x'
I940
sS'z'
I940
sg4
I940
sba(i__main__
Pixel
p2675
(dp2676
S'y'
I1755
sS'x'
I1755
sS'z'
I1755
sg4
I1755
sba(i__main__
Pixel
p2677
(dp2678
S'y'
I7
sS'x'
I7
sS'z'
I7
sg4
I7
sba(i__main__
Pixel
p2679
(dp2680
S'y'
I579
sS'x'
I579
sS'z'
I579
sg4
I579
sba(i__main__
Pixel
p2681
(dp2682
S'y'
I117
sS'x'
I117
sS'z'
I117
sg4
I117
sba(i__main__
Pixel
p2683
(dp2684
S'y'
I1598
sS'x'
I1598
sS'z'
I1598
sg4
I1598
sba(i__main__
Pixel
p2685
(dp2686
S'y'
I256
sS'x'
I256
sS'z'
I256
sg4
I256
sba(i__main__
Pixel
p2687
(dp2688
S'y'
I106
sS'x'
I106
sS'z'
I106
sg4
I106
sba(i__main__
Pixel
p2689
(dp2690
S'y'
I1232
sS'x'
I1232
sS'z'
I1232
sg4
I1232
sba(i__main__
Pixel
p2691
(dp2692
S'y'
I680
sS'x'
I680
sS'z'
I680
sg4
I680
sba(i__main__
Pixel
p2693
(dp2694
S'y'
I935
sS'x'
I935
sS'z'
I935
sg4
I935
sba(i__main__
Pixel
p2695
(dp2696
S'y'
I1400
sS'x'
I1400
sS'z'
I1400
sg4
I1400
sba(i__main__
Pixel
p2697
(dp2698
S'y'
I1289
sS'x'
I1289
sS'z'
I1289
sg4
I1289
sba(i__main__
Pixel
p2699
(dp2700
S'y'
I1057
sS'x'
I1057
sS'z'
I1057
sg4
I1057
sba(i__main__
Pixel
p2701
(dp2702
S'y'
I1545
sS'x'
I1545
sS'z'
I1545
sg4
I1545
sba(i__main__
Pixel
p2703
(dp2704
S'y'
I336
sS'x'
I336
sS'z'
I336
sg4
I336
sba(i__main__
Pixel
p2705
(dp2706
S'y'
I883
sS'x'
I883
sS'z'
I883
sg4
I883
sba(i__main__
Pixel
p2707
(dp2708
S'y'
I1822
sS'x'
I1822
sS'z'
I1822
sg4
I1822
sba(i__main__
Pixel
p2709
(dp2710
S'y'
I1080
sS'x'
I1080
sS'z'
I1080
sg4
I1080
sba(i__main__
Pixel
p2711
(dp2712
S'y'
I822
sS'x'
I822
sS'z'
I822
sg4
I822
sba(i__main__
Pixel
p2713
(dp2714
S'y'
I88
sS'x'
I88
sS'z'
I88
sg4
I88
sba(i__main__
Pixel
p2715
(dp2716
S'y'
I1214
sS'x'
I1214
sS'z'
I1214
sg4
I1214
sba(i__main__
Pixel
p2717
(dp2718
S'y'
I1874
sS'x'
I1874
sS'z'
I1874
sg4
I1874
sba(i__main__
Pixel
p2719
(dp2720
S'y'
I568
sS'x'
I568
sS'z'
I568
sg4
I568
sba(i__main__
Pixel
p2721
(dp2722
S'y'
I572
sS'x'
I572
sS'z'
I572
sg4
I572
sba(i__main__
Pixel
p2723
(dp2724
S'y'
I1016
sS'x'
I1016
sS'z'
I1016
sg4
I1016
sba(i__main__
Pixel
p2725
(dp2726
S'y'
I743
sS'x'
I743
sS'z'
I743
sg4
I743
sba(i__main__
Pixel
p2727
(dp2728
S'y'
I424
sS'x'
I424
sS'z'
I424
sg4
I424
sba(i__main__
Pixel
p2729
(dp2730
S'y'
I1219
sS'x'
I1219
sS'z'
I1219
sg4
I1219
sba(i__main__
Pixel
p2731
(dp2732
S'y'
I1210
sS'x'
I1210
sS'z'
I1210
sg4
I1210
sba(i__main__
Pixel
p2733
(dp2734
S'y'
I1913
sS'x'
I1913
sS'z'
I1913
sg4
I1913
sba(i__main__
Pixel
p2735
(dp2736
S'y'
I929
sS'x'
I929
sS'z'
I929
sg4
I929
sba(i__main__
Pixel
p2737
(dp2738
S'y'
I238
sS'x'
I238
sS'z'
I238
sg4
I238
sba(i__main__
Pixel
p2739
(dp2740
S'y'
I284
sS'x'
I284
sS'z'
I284
sg4
I284
sba(i__main__
Pixel
p2741
(dp2742
S'y'
I781
sS'x'
I781
sS'z'
I781
sg4
I781
sba(i__main__
Pixel
p2743
(dp2744
S'y'
I1072
sS'x'
I1072
sS'z'
I1072
sg4
I1072
sba(i__main__
Pixel
p2745
(dp2746
S'y'
I1223
sS'x'
I1223
sS'z'
I1223
sg4
I1223
sba(i__main__
Pixel
p2747
(dp2748
S'y'
I338
sS'x'
I338
sS'z'
I338
sg4
I338
sba(i__main__
Pixel
p2749
(dp2750
S'y'
I540
sS'x'
I540
sS'z'
I540
sg4
I540
sba(i__main__
Pixel
p2751
(dp2752
S'y'
I815
sS'x'
I815
sS'z'
I815
sg4
I815
sba(i__main__
Pixel
p2753
(dp2754
S'y'
I1799
sS'x'
I1799
sS'z'
I1799
sg4
I1799
sba(i__main__
Pixel
p2755
(dp2756
S'y'
I427
sS'x'
I427
sS'z'
I427
sg4
I427
sba(i__main__
Pixel
p2757
(dp2758
S'y'
I1481
sS'x'
I1481
sS'z'
I1481
sg4
I1481
sba(i__main__
Pixel
p2759
(dp2760
S'y'
I1202
sS'x'
I1202
sS'z'
I1202
sg4
I1202
sba(i__main__
Pixel
p2761
(dp2762
S'y'
I708
sS'x'
I708
sS'z'
I708
sg4
I708
sba(i__main__
Pixel
p2763
(dp2764
S'y'
I1577
sS'x'
I1577
sS'z'
I1577
sg4
I1577
sba(i__main__
Pixel
p2765
(dp2766
S'y'
I1
sS'x'
I1
sS'z'
I1
sg4
I1
sba(i__main__
Pixel
p2767
(dp2768
S'y'
I1076
sS'x'
I1076
sS'z'
I1076
sg4
I1076
sba(i__main__
Pixel
p2769
(dp2770
S'y'
I1427
sS'x'
I1427
sS'z'
I1427
sg4
I1427
sba(i__main__
Pixel
p2771
(dp2772
S'y'
I1908
sS'x'
I1908
sS'z'
I1908
sg4
I1908
sba(i__main__
Pixel
p2773
(dp2774
S'y'
I1665
sS'x'
I1665
sS'z'
I1665
sg4
I1665
sba(i__main__
Pixel
p2775
(dp2776
S'y'
I722
sS'x'
I722
sS'z'
I722
sg4
I722
sba(i__main__
Pixel
p2777
(dp2778
S'y'
I976
sS'x'
I976
sS'z'
I976
sg4
I976
sba(i__main__
Pixel
p2779
(dp2780
S'y'
I401
sS'x'
I401
sS'z'
I401
sg4
I401
sba(i__main__
Pixel
p2781
(dp2782
S'y'
I841
sS'x'
I841
sS'z'
I841
sg4
I841
sba(i__main__
Pixel
p2783
(dp2784
S'y'
I1122
sS'x'
I1122
sS'z'
I1122
sg4
I1122
sba(i__main__
Pixel
p2785
(dp2786
S'y'
I326
sS'x'
I326
sS'z'
I326
sg4
I326
sba(i__main__
Pixel
p2787
(dp2788
S'y'
I1477
sS'x'
I1477
sS'z'
I1477
sg4
I1477
sba(i__main__
Pixel
p2789
(dp2790
S'y'
I761
sS'x'
I761
sS'z'
I761
sg4
I761
sba(i__main__
Pixel
p2791
(dp2792
S'y'
I355
sS'x'
I355
sS'z'
I355
sg4
I355
sba(i__main__
Pixel
p2793
(dp2794
S'y'
I362
sS'x'
I362
sS'z'
I362
sg4
I362
sba(i__main__
Pixel
p2795
(dp2796
S'y'
I1963
sS'x'
I1963
sS'z'
I1963
sg4
I1963
sba(i__main__
Pixel
p2797
(dp2798
S'y'
I597
sS'x'
I597
sS'z'
I597
sg4
I597
sba(i__main__
Pixel
p2799
(dp2800
S'y'
I456
sS'x'
I456
sS'z'
I456
sg4
I456
sba(i__main__
Pixel
p2801
(dp2802
S'y'
I854
sS'x'
I854
sS'z'
I854
sg4
I854
sba(i__main__
Pixel
p2803
(dp2804
S'y'
I364
sS'x'
I364
sS'z'
I364
sg4
I364
sba(i__main__
Pixel
p2805
(dp2806
S'y'
I611
sS'x'
I611
sS'z'
I611
sg4
I611
sba(i__main__
Pixel
p2807
(dp2808
S'y'
I1815
sS'x'
I1815
sS'z'
I1815
sg4
I1815
sba(i__main__
Pixel
p2809
(dp2810
S'y'
I671
sS'x'
I671
sS'z'
I671
sg4
I671
sba(i__main__
Pixel
p2811
(dp2812
S'y'
I1460
sS'x'
I1460
sS'z'
I1460
sg4
I1460
sba(i__main__
Pixel
p2813
(dp2814
S'y'
I1473
sS'x'
I1473
sS'z'
I1473
sg4
I1473
sba(i__main__
Pixel
p2815
(dp2816
S'y'
I1308
sS'x'
I1308
sS'z'
I1308
sg4
I1308
sba(i__main__
Pixel
p2817
(dp2818
S'y'
I860
sS'x'
I860
sS'z'
I860
sg4
I860
sba(i__main__
Pixel
p2819
(dp2820
S'y'
I1368
sS'x'
I1368
sS'z'
I1368
sg4
I1368
sba(i__main__
Pixel
p2821
(dp2822
S'y'
I535
sS'x'
I535
sS'z'
I535
sg4
I535
sba(i__main__
Pixel
p2823
(dp2824
S'y'
I856
sS'x'
I856
sS'z'
I856
sg4
I856
sba(i__main__
Pixel
p2825
(dp2826
S'y'
I1626
sS'x'
I1626
sS'z'
I1626
sg4
I1626
sba(i__main__
Pixel
p2827
(dp2828
S'y'
I901
sS'x'
I901
sS'z'
I901
sg4
I901
sba(i__main__
Pixel
p2829
(dp2830
S'y'
I1102
sS'x'
I1102
sS'z'
I1102
sg4
I1102
sba(i__main__
Pixel
p2831
(dp2832
S'y'
I964
sS'x'
I964
sS'z'
I964
sg4
I964
sba(i__main__
Pixel
p2833
(dp2834
S'y'
I985
sS'x'
I985
sS'z'
I985
sg4
I985
sba(i__main__
Pixel
p2835
(dp2836
S'y'
I1137
sS'x'
I1137
sS'z'
I1137
sg4
I1137
sba(i__main__
Pixel
p2837
(dp2838
S'y'
I41
sS'x'
I41
sS'z'
I41
sg4
I41
sba(i__main__
Pixel
p2839
(dp2840
S'y'
I1943
sS'x'
I1943
sS'z'
I1943
sg4
I1943
sba(i__main__
Pixel
p2841
(dp2842
S'y'
I1306
sS'x'
I1306
sS'z'
I1306
sg4
I1306
sba(i__main__
Pixel
p2843
(dp2844
S'y'
I1508
sS'x'
I1508
sS'z'
I1508
sg4
I1508
sba(i__main__
Pixel
p2845
(dp2846
S'y'
I1464
sS'x'
I1464
sS'z'
I1464
sg4
I1464
sba(i__main__
Pixel
p2847
(dp2848
S'y'
I19
sS'x'
I19
sS'z'
I19
sg4
I19
sba(i__main__
Pixel
p2849
(dp2850
S'y'
I334
sS'x'
I334
sS'z'
I334
sg4
I334
sba(i__main__
Pixel
p2851
(dp2852
S'y'
I1130
sS'x'
I1130
sS'z'
I1130
sg4
I1130
sba(i__main__
Pixel
p2853
(dp2854
S'y'
I1177
sS'x'
I1177
sS'z'
I1177
sg4
I1177
sba(i__main__
Pixel
p2855
(dp2856
S'y'
I1345
sS'x'
I1345
sS'z'
I1345
sg4
I1345
sba(i__main__
Pixel
p2857
(dp2858
S'y'
I828
sS'x'
I828
sS'z'
I828
sg4
I828
sba(i__main__
Pixel
p2859
(dp2860
S'y'
I786
sS'x'
I786
sS'z'
I786
sg4
I786
sba(i__main__
Pixel
p2861
(dp2862
S'y'
I1033
sS'x'
I1033
sS'z'
I1033
sg4
I1033
sba(i__main__
Pixel
p2863
(dp2864
S'y'
I1792
sS'x'
I1792
sS'z'
I1792
sg4
I1792
sba(i__main__
Pixel
p2865
(dp2866
S'y'
I237
sS'x'
I237
sS'z'
I237
sg4
I237
sba(i__main__
Pixel
p2867
(dp2868
S'y'
I127
sS'x'
I127
sS'z'
I127
sg4
I127
sba(i__main__
Pixel
p2869
(dp2870
S'y'
I1341
sS'x'
I1341
sS'z'
I1341
sg4
I1341
sba(i__main__
Pixel
p2871
(dp2872
S'y'
I1702
sS'x'
I1702
sS'z'
I1702
sg4
I1702
sba(i__main__
Pixel
p2873
(dp2874
S'y'
I918
sS'x'
I918
sS'z'
I918
sg4
I918
sba(i__main__
Pixel
p2875
(dp2876
S'y'
I496
sS'x'
I496
sS'z'
I496
sg4
I496
sba(i__main__
Pixel
p2877
(dp2878
S'y'
I957
sS'x'
I957
sS'z'
I957
sg4
I957
sba(i__main__
Pixel
p2879
(dp2880
S'y'
I917
sS'x'
I917
sS'z'
I917
sg4
I917
sba(i__main__
Pixel
p2881
(dp2882
S'y'
I625
sS'x'
I625
sS'z'
I625
sg4
I625
sba(i__main__
Pixel
p2883
(dp2884
S'y'
I942
sS'x'
I942
sS'z'
I942
sg4
I942
sba(i__main__
Pixel
p2885
(dp2886
S'y'
I1010
sS'x'
I1010
sS'z'
I1010
sg4
I1010
sba(i__main__
Pixel
p2887
(dp2888
S'y'
I1848
sS'x'
I1848
sS'z'
I1848
sg4
I1848
sba(i__main__
Pixel
p2889
(dp2890
S'y'
I173
sS'x'
I173
sS'z'
I173
sg4
I173
sba(i__main__
Pixel
p2891
(dp2892
S'y'
I500
sS'x'
I500
sS'z'
I500
sg4
I500
sba(i__main__
Pixel
p2893
(dp2894
S'y'
I1008
sS'x'
I1008
sS'z'
I1008
sg4
I1008
sba(i__main__
Pixel
p2895
(dp2896
S'y'
I513
sS'x'
I513
sS'z'
I513
sg4
I513
sba(i__main__
Pixel
p2897
(dp2898
S'y'
I599
sS'x'
I599
sS'z'
I599
sg4
I599
sba(i__main__
Pixel
p2899
(dp2900
S'y'
I307
sS'x'
I307
sS'z'
I307
sg4
I307
sba(i__main__
Pixel
p2901
(dp2902
S'y'
I983
sS'x'
I983
sS'z'
I983
sg4
I983
sba(i__main__
Pixel
p2903
(dp2904
S'y'
I1443
sS'x'
I1443
sS'z'
I1443
sg4
I1443
sba(i__main__
Pixel
p2905
(dp2906
S'y'
I104
sS'x'
I104
sS'z'
I104
sg4
I104
sba(i__main__
Pixel
p2907
(dp2908
S'y'
I62
sS'x'
I62
sS'z'
I62
sg4
I62
sba(i__main__
Pixel
p2909
(dp2910
S'y'
I792
sS'x'
I792
sS'z'
I792
sg4
I792
sba(i__main__
Pixel
p2911
(dp2912
S'y'
I1843
sS'x'
I1843
sS'z'
I1843
sg4
I1843
sba(i__main__
Pixel
p2913
(dp2914
S'y'
I1074
sS'x'
I1074
sS'z'
I1074
sg4
I1074
sba(i__main__
Pixel
p2915
(dp2916
S'y'
I1007
sS'x'
I1007
sS'z'
I1007
sg4
I1007
sba(i__main__
Pixel
p2917
(dp2918
S'y'
I1735
sS'x'
I1735
sS'z'
I1735
sg4
I1735
sba(i__main__
Pixel
p2919
(dp2920
S'y'
I1881
sS'x'
I1881
sS'z'
I1881
sg4
I1881
sba(i__main__
Pixel
p2921
(dp2922
S'y'
I1104
sS'x'
I1104
sS'z'
I1104
sg4
I1104
sba(i__main__
Pixel
p2923
(dp2924
S'y'
I1773
sS'x'
I1773
sS'z'
I1773
sg4
I1773
sba(i__main__
Pixel
p2925
(dp2926
S'y'
I386
sS'x'
I386
sS'z'
I386
sg4
I386
sba(i__main__
Pixel
p2927
(dp2928
S'y'
I1532
sS'x'
I1532
sS'z'
I1532
sg4
I1532
sba(i__main__
Pixel
p2929
(dp2930
S'y'
I76
sS'x'
I76
sS'z'
I76
sg4
I76
sba(i__main__
Pixel
p2931
(dp2932
S'y'
I1278
sS'x'
I1278
sS'z'
I1278
sg4
I1278
sba(i__main__
Pixel
p2933
(dp2934
S'y'
I948
sS'x'
I948
sS'z'
I948
sg4
I948
sba(i__main__
Pixel
p2935
(dp2936
S'y'
I1844
sS'x'
I1844
sS'z'
I1844
sg4
I1844
sba(i__main__
Pixel
p2937
(dp2938
S'y'
I332
sS'x'
I332
sS'z'
I332
sg4
I332
sba(i__main__
Pixel
p2939
(dp2940
S'y'
I1696
sS'x'
I1696
sS'z'
I1696
sg4
I1696
sba(i__main__
Pixel
p2941
(dp2942
S'y'
I825
sS'x'
I825
sS'z'
I825
sg4
I825
sba(i__main__
Pixel
p2943
(dp2944
S'y'
I1375
sS'x'
I1375
sS'z'
I1375
sg4
I1375
sba(i__main__
Pixel
p2945
(dp2946
S'y'
I1907
sS'x'
I1907
sS'z'
I1907
sg4
I1907
sba(i__main__
Pixel
p2947
(dp2948
S'y'
I1672
sS'x'
I1672
sS'z'
I1672
sg4
I1672
sba(i__main__
Pixel
p2949
(dp2950
S'y'
I1934
sS'x'
I1934
sS'z'
I1934
sg4
I1934
sba(i__main__
Pixel
p2951
(dp2952
S'y'
I1166
sS'x'
I1166
sS'z'
I1166
sg4
I1166
sba(i__main__
Pixel
p2953
(dp2954
S'y'
I159
sS'x'
I159
sS'z'
I159
sg4
I159
sba(i__main__
Pixel
p2955
(dp2956
S'y'
I1005
sS'x'
I1005
sS'z'
I1005
sg4
I1005
sba(i__main__
Pixel
p2957
(dp2958
S'y'
I620
sS'x'
I620
sS'z'
I620
sg4
I620
sba(i__main__
Pixel
p2959
(dp2960
S'y'
I1112
sS'x'
I1112
sS'z'
I1112
sg4
I1112
sba(i__main__
Pixel
p2961
(dp2962
S'y'
I564
sS'x'
I564
sS'z'
I564
sg4
I564
sba(i__main__
Pixel
p2963
(dp2964
S'y'
I166
sS'x'
I166
sS'z'
I166
sg4
I166
sba(i__main__
Pixel
p2965
(dp2966
S'y'
I1668
sS'x'
I1668
sS'z'
I1668
sg4
I1668
sba(i__main__
Pixel
p2967
(dp2968
S'y'
I1323
sS'x'
I1323
sS'z'
I1323
sg4
I1323
sba(i__main__
Pixel
p2969
(dp2970
S'y'
I851
sS'x'
I851
sS'z'
I851
sg4
I851
sba(i__main__
Pixel
p2971
(dp2972
S'y'
I1246
sS'x'
I1246
sS'z'
I1246
sg4
I1246
sba(i__main__
Pixel
p2973
(dp2974
S'y'
I1751
sS'x'
I1751
sS'z'
I1751
sg4
I1751
sba(i__main__
Pixel
p2975
(dp2976
S'y'
I1778
sS'x'
I1778
sS'z'
I1778
sg4
I1778
sba(i__main__
Pixel
p2977
(dp2978
S'y'
I1245
sS'x'
I1245
sS'z'
I1245
sg4
I1245
sba(i__main__
Pixel
p2979
(dp2980
S'y'
I3
sS'x'
I3
sS'z'
I3
sg4
I3
sba(i__main__
Pixel
p2981
(dp2982
S'y'
I1476
sS'x'
I1476
sS'z'
I1476
sg4
I1476
sba(i__main__
Pixel
p2983
(dp2984
S'y'
I1201
sS'x'
I1201
sS'z'
I1201
sg4
I1201
sba(i__main__
Pixel
p2985
(dp2986
S'y'
I1456
sS'x'
I1456
sS'z'
I1456
sg4
I1456
sba(i__main__
Pixel
p2987
(dp2988
S'y'
I1004
sS'x'
I1004
sS'z'
I1004
sg4
I1004
sba(i__main__
Pixel
p2989
(dp2990
S'y'
I443
sS'x'
I443
sS'z'
I443
sg4
I443
sba(i__main__
Pixel
p2991
(dp2992
S'y'
I1103
sS'x'
I1103
sS'z'
I1103
sg4
I1103
sba(i__main__
Pixel
p2993
(dp2994
S'y'
I1750
sS'x'
I1750
sS'z'
I1750
sg4
I1750
sba(i__main__
Pixel
p2995
(dp2996
S'y'
I955
sS'x'
I955
sS'z'
I955
sg4
I955
sba(i__main__
Pixel
p2997
(dp2998
S'y'
I390
sS'x'
I390
sS'z'
I390
sg4
I390
sba(i__main__
Pixel
p2999
(dp3000
S'y'
I1521
sS'x'
I1521
sS'z'
I1521
sg4
I1521
sba(i__main__
Pixel
p3001
(dp3002
S'y'
I974
sS'x'
I974
sS'z'
I974
sg4
I974
sba(i__main__
Pixel
p3003
(dp3004
S'y'
I621
sS'x'
I621
sS'z'
I621
sg4
I621
sba(i__main__
Pixel
p3005
(dp3006
S'y'
I1592
sS'x'
I1592
sS'z'
I1592
sg4
I1592
sba(i__main__
Pixel
p3007
(dp3008
S'y'
I634
sS'x'
I634
sS'z'
I634
sg4
I634
sba(i__main__
Pixel
p3009
(dp3010
S'y'
I953
sS'x'
I953
sS'z'
I953
sg4
I953
sba(i__main__
Pixel
p3011
(dp3012
S'y'
I467
sS'x'
I467
sS'z'
I467
sg4
I467
sba(i__main__
Pixel
p3013
(dp3014
S'y'
I1089
sS'x'
I1089
sS'z'
I1089
sg4
I1089
sba(i__main__
Pixel
p3015
(dp3016
S'y'
I172
sS'x'
I172
sS'z'
I172
sg4
I172
sba(i__main__
Pixel
p3017
(dp3018
S'y'
I1997
sS'x'
I1997
sS'z'
I1997
sg4
I1997
sba(i__main__
Pixel
p3019
(dp3020
S'y'
I1110
sS'x'
I1110
sS'z'
I1110
sg4
I1110
sba(i__main__
Pixel
p3021
(dp3022
S'y'
I1293
sS'x'
I1293
sS'z'
I1293
sg4
I1293
sba(i__main__
Pixel
p3023
(dp3024
S'y'
I32
sS'x'
I32
sS'z'
I32
sg4
I32
sba(i__main__
Pixel
p3025
(dp3026
S'y'
I771
sS'x'
I771
sS'z'
I771
sg4
I771
sba(i__main__
Pixel
p3027
(dp3028
S'y'
I1279
sS'x'
I1279
sS'z'
I1279
sg4
I1279
sba(i__main__
Pixel
p3029
(dp3030
S'y'
I480
sS'x'
I480
sS'z'
I480
sg4
I480
sba(i__main__
Pixel
p3031
(dp3032
S'y'
I673
sS'x'
I673
sS'z'
I673
sg4
I673
sba(i__main__
Pixel
p3033
(dp3034
S'y'
I672
sS'x'
I672
sS'z'
I672
sg4
I672
sba(i__main__
Pixel
p3035
(dp3036
S'y'
I651
sS'x'
I651
sS'z'
I651
sg4
I651
sba(i__main__
Pixel
p3037
(dp3038
S'y'
I1635
sS'x'
I1635
sS'z'
I1635
sg4
I1635
sba(i__main__
Pixel
p3039
(dp3040
S'y'
I1956
sS'x'
I1956
sS'z'
I1956
sg4
I1956
sba(i__main__
Pixel
p3041
(dp3042
S'y'
I1447
sS'x'
I1447
sS'z'
I1447
sg4
I1447
sba(i__main__
Pixel
p3043
(dp3044
S'y'
I475
sS'x'
I475
sS'z'
I475
sg4
I475
sba(i__main__
Pixel
p3045
(dp3046
S'y'
I6
sS'x'
I6
sS'z'
I6
sg4
I6
sba(i__main__
Pixel
p3047
(dp3048
S'y'
I1132
sS'x'
I1132
sS'z'
I1132
sg4
I1132
sba(i__main__
Pixel
p3049
(dp3050
S'y'
I1666
sS'x'
I1666
sS'z'
I1666
sg4
I1666
sba(i__main__
Pixel
p3051
(dp3052
S'y'
I499
sS'x'
I499
sS'z'
I499
sg4
I499
sba(i__main__
Pixel
p3053
(dp3054
S'y'
I1716
sS'x'
I1716
sS'z'
I1716
sg4
I1716
sba(i__main__
Pixel
p3055
(dp3056
S'y'
I1634
sS'x'
I1634
sS'z'
I1634
sg4
I1634
sba(i__main__
Pixel
p3057
(dp3058
S'y'
I422
sS'x'
I422
sS'z'
I422
sg4
I422
sba(i__main__
Pixel
p3059
(dp3060
S'y'
I1779
sS'x'
I1779
sS'z'
I1779
sg4
I1779
sba(i__main__
Pixel
p3061
(dp3062
S'y'
I223
sS'x'
I223
sS'z'
I223
sg4
I223
sba(i__main__
Pixel
p3063
(dp3064
S'y'
I1771
sS'x'
I1771
sS'z'
I1771
sg4
I1771
sba(i__main__
Pixel
p3065
(dp3066
S'y'
I1139
sS'x'
I1139
sS'z'
I1139
sg4
I1139
sba(i__main__
Pixel
p3067
(dp3068
S'y'
I723
sS'x'
I723
sS'z'
I723
sg4
I723
sba(i__main__
Pixel
p3069
(dp3070
S'y'
I1453
sS'x'
I1453
sS'z'
I1453
sg4
I1453
sba(i__main__
Pixel
p3071
(dp3072
S'y'
I1764
sS'x'
I1764
sS'z'
I1764
sg4
I1764
sba(i__main__
Pixel
p3073
(dp3074
S'y'
I1981
sS'x'
I1981
sS'z'
I1981
sg4
I1981
sba(i__main__
Pixel
p3075
(dp3076
S'y'
I397
sS'x'
I397
sS'z'
I397
sg4
I397
sba(i__main__
Pixel
p3077
(dp3078
S'y'
I257
sS'x'
I257
sS'z'
I257
sg4
I257
sba(i__main__
Pixel
p3079
(dp3080
S'y'
I823
sS'x'
I823
sS'z'
I823
sg4
I823
sba(i__main__
Pixel
p3081
(dp3082
S'y'
I1233
sS'x'
I1233
sS'z'
I1233
sg4
I1233
sba(i__main__
Pixel
p3083
(dp3084
S'y'
I1182
sS'x'
I1182
sS'z'
I1182
sg4
I1182
sba(i__main__
Pixel
p3085
(dp3086
S'y'
I333
sS'x'
I333
sS'z'
I333
sg4
I333
sba(i__main__
Pixel
p3087
(dp3088
S'y'
I937
sS'x'
I937
sS'z'
I937
sg4
I937
sba(i__main__
Pixel
p3089
(dp3090
S'y'
I1581
sS'x'
I1581
sS'z'
I1581
sg4
I1581
sba(i__main__
Pixel
p3091
(dp3092
S'y'
I1311
sS'x'
I1311
sS'z'
I1311
sg4
I1311
sba(i__main__
Pixel
p3093
(dp3094
S'y'
I561
sS'x'
I561
sS'z'
I561
sg4
I561
sba(i__main__
Pixel
p3095
(dp3096
S'y'
I387
sS'x'
I387
sS'z'
I387
sg4
I387
sba(i__main__
Pixel
p3097
(dp3098
S'y'
I1384
sS'x'
I1384
sS'z'
I1384
sg4
I1384
sba(i__main__
Pixel
p3099
(dp3100
S'y'
I122
sS'x'
I122
sS'z'
I122
sg4
I122
sba(i__main__
Pixel
p3101
(dp3102
S'y'
I1317
sS'x'
I1317
sS'z'
I1317
sg4
I1317
sba(i__main__
Pixel
p3103
(dp3104
S'y'
I393
sS'x'
I393
sS'z'
I393
sg4
I393
sba(i__main__
Pixel
p3105
(dp3106
S'y'
I1107
sS'x'
I1107
sS'z'
I1107
sg4
I1107
sba(i__main__
Pixel
p3107
(dp3108
S'y'
I1273
sS'x'
I1273
sS'z'
I1273
sg4
I1273
sba(i__main__
Pixel
p3109
(dp3110
S'y'
I1145
sS'x'
I1145
sS'z'
I1145
sg4
I1145
sba(i__main__
Pixel
p3111
(dp3112
S'y'
I724
sS'x'
I724
sS'z'
I724
sg4
I724
sba(i__main__
Pixel
p3113
(dp3114
S'y'
I1756
sS'x'
I1756
sS'z'
I1756
sg4
I1756
sba(i__main__
Pixel
p3115
(dp3116
S'y'
I303
sS'x'
I303
sS'z'
I303
sg4
I303
sba(i__main__
Pixel
p3117
(dp3118
S'y'
I1237
sS'x'
I1237
sS'z'
I1237
sg4
I1237
sba(i__main__
Pixel
p3119
(dp3120
S'y'
I1301
sS'x'
I1301
sS'z'
I1301
sg4
I1301
sba(i__main__
Pixel
p3121
(dp3122
S'y'
I1470
sS'x'
I1470
sS'z'
I1470
sg4
I1470
sba(i__main__
Pixel
p3123
(dp3124
S'y'
I627
sS'x'
I627
sS'z'
I627
sg4
I627
sba(i__main__
Pixel
p3125
(dp3126
S'y'
I1474
sS'x'
I1474
sS'z'
I1474
sg4
I1474
sba(i__main__
Pixel
p3127
(dp3128
S'y'
I1805
sS'x'
I1805
sS'z'
I1805
sg4
I1805
sba(i__main__
Pixel
p3129
(dp3130
S'y'
I846
sS'x'
I846
sS'z'
I846
sg4
I846
sba(i__main__
Pixel
p3131
(dp3132
S'y'
I1199
sS'x'
I1199
sS'z'
I1199
sg4
I1199
sba(i__main__
Pixel
p3133
(dp3134
S'y'
I464
sS'x'
I464
sS'z'
I464
sg4
I464
sba(i__main__
Pixel
p3135
(dp3136
S'y'
I754
sS'x'
I754
sS'z'
I754
sg4
I754
sba(i__main__
Pixel
p3137
(dp3138
S'y'
I1220
sS'x'
I1220
sS'z'
I1220
sg4
I1220
sba(i__main__
Pixel
p3139
(dp3140
S'y'
I666
sS'x'
I666
sS'z'
I666
sg4
I666
sba(i__main__
Pixel
p3141
(dp3142
S'y'
I1227
sS'x'
I1227
sS'z'
I1227
sg4
I1227
sba(i__main__
Pixel
p3143
(dp3144
S'y'
I100
sS'x'
I100
sS'z'
I100
sg4
I100
sba(i__main__
Pixel
p3145
(dp3146
S'y'
I55
sS'x'
I55
sS'z'
I55
sg4
I55
sba(i__main__
Pixel
p3147
(dp3148
S'y'
I182
sS'x'
I182
sS'z'
I182
sg4
I182
sba(i__main__
Pixel
p3149
(dp3150
S'y'
I589
sS'x'
I589
sS'z'
I589
sg4
I589
sba(i__main__
Pixel
p3151
(dp3152
S'y'
I109
sS'x'
I109
sS'z'
I109
sg4
I109
sba(i__main__
Pixel
p3153
(dp3154
S'y'
I263
sS'x'
I263
sS'z'
I263
sg4
I263
sba(i__main__
Pixel
p3155
(dp3156
S'y'
I594
sS'x'
I594
sS'z'
I594
sg4
I594
sba(i__main__
Pixel
p3157
(dp3158
S'y'
I1871
sS'x'
I1871
sS'z'
I1871
sg4
I1871
sba(i__main__
Pixel
p3159
(dp3160
S'y'
I816
sS'x'
I816
sS'z'
I816
sg4
I816
sba(i__main__
Pixel
p3161
(dp3162
S'y'
I544
sS'x'
I544
sS'z'
I544
sg4
I544
sba(i__main__
Pixel
p3163
(dp3164
S'y'
I1889
sS'x'
I1889
sS'z'
I1889
sg4
I1889
sba(i__main__
Pixel
p3165
(dp3166
S'y'
I1149
sS'x'
I1149
sS'z'
I1149
sg4
I1149
sba(i__main__
Pixel
p3167
(dp3168
S'y'
I1206
sS'x'
I1206
sS'z'
I1206
sg4
I1206
sba(i__main__
Pixel
p3169
(dp3170
S'y'
I1159
sS'x'
I1159
sS'z'
I1159
sg4
I1159
sba(i__main__
Pixel
p3171
(dp3172
S'y'
I1247
sS'x'
I1247
sS'z'
I1247
sg4
I1247
sba(i__main__
Pixel
p3173
(dp3174
S'y'
I201
sS'x'
I201
sS'z'
I201
sg4
I201
sba(i__main__
Pixel
p3175
(dp3176
S'y'
I629
sS'x'
I629
sS'z'
I629
sg4
I629
sba(i__main__
Pixel
p3177
(dp3178
S'y'
I296
sS'x'
I296
sS'z'
I296
sg4
I296
sba(i__main__
Pixel
p3179
(dp3180
S'y'
I745
sS'x'
I745
sS'z'
I745
sg4
I745
sba(i__main__
Pixel
p3181
(dp3182
S'y'
I1749
sS'x'
I1749
sS'z'
I1749
sg4
I1749
sba(i__main__
Pixel
p3183
(dp3184
S'y'
I1831
sS'x'
I1831
sS'z'
I1831
sg4
I1831
sba(i__main__
Pixel
p3185
(dp3186
S'y'
I1911
sS'x'
I1911
sS'z'
I1911
sg4
I1911
sba(i__main__
Pixel
p3187
(dp3188
S'y'
I1324
sS'x'
I1324
sS'z'
I1324
sg4
I1324
sba(i__main__
Pixel
p3189
(dp3190
S'y'
I1063
sS'x'
I1063
sS'z'
I1063
sg4
I1063
sba(i__main__
Pixel
p3191
(dp3192
S'y'
I214
sS'x'
I214
sS'z'
I214
sg4
I214
sba(i__main__
Pixel
p3193
(dp3194
S'y'
I51
sS'x'
I51
sS'z'
I51
sg4
I51
sba(i__main__
Pixel
p3195
(dp3196
S'y'
I1386
sS'x'
I1386
sS'z'
I1386
sg4
I1386
sba(i__main__
Pixel
p3197
(dp3198
S'y'
I294
sS'x'
I294
sS'z'
I294
sg4
I294
sba(i__main__
Pixel
p3199
(dp3200
S'y'
I927
sS'x'
I927
sS'z'
I927
sg4
I927
sba(i__main__
Pixel
p3201
(dp3202
S'y'
I1947
sS'x'
I1947
sS'z'
I1947
sg4
I1947
sba(i__main__
Pixel
p3203
(dp3204
S'y'
I1786
sS'x'
I1786
sS'z'
I1786
sg4
I1786
sba(i__main__
Pixel
p3205
(dp3206
S'y'
I313
sS'x'
I313
sS'z'
I313
sg4
I313
sba(i__main__
Pixel
p3207
(dp3208
S'y'
I945
sS'x'
I945
sS'z'
I945
sg4
I945
sba(i__main__
Pixel
p3209
(dp3210
S'y'
I1385
sS'x'
I1385
sS'z'
I1385
sg4
I1385
sba(i__main__
Pixel
p3211
(dp3212
S'y'
I1657
sS'x'
I1657
sS'z'
I1657
sg4
I1657
sba(i__main__
Pixel
p3213
(dp3214
S'y'
I582
sS'x'
I582
sS'z'
I582
sg4
I582
sba(i__main__
Pixel
p3215
(dp3216
S'y'
I482
sS'x'
I482
sS'z'
I482
sg4
I482
sba(i__main__
Pixel
p3217
(dp3218
S'y'
I363
sS'x'
I363
sS'z'
I363
sg4
I363
sba(i__main__
Pixel
p3219
(dp3220
S'y'
I947
sS'x'
I947
sS'z'
I947
sg4
I947
sba(i__main__
Pixel
p3221
(dp3222
S'y'
I213
sS'x'
I213
sS'z'
I213
sg4
I213
sba(i__main__
Pixel
p3223
(dp3224
S'y'
I880
sS'x'
I880
sS'z'
I880
sg4
I880
sba(i__main__
Pixel
p3225
(dp3226
S'y'
I1569
sS'x'
I1569
sS'z'
I1569
sg4
I1569
sba(i__main__
Pixel
p3227
(dp3228
S'y'
I812
sS'x'
I812
sS'z'
I812
sg4
I812
sba(i__main__
Pixel
p3229
(dp3230
S'y'
I483
sS'x'
I483
sS'z'
I483
sg4
I483
sba(i__main__
Pixel
p3231
(dp3232
S'y'
I369
sS'x'
I369
sS'z'
I369
sg4
I369
sba(i__main__
Pixel
p3233
(dp3234
S'y'
I78
sS'x'
I78
sS'z'
I78
sg4
I78
sba(i__main__
Pixel
p3235
(dp3236
S'y'
I1967
sS'x'
I1967
sS'z'
I1967
sg4
I1967
sba(i__main__
Pixel
p3237
(dp3238
S'y'
I514
sS'x'
I514
sS'z'
I514
sg4
I514
sba(i__main__
Pixel
p3239
(dp3240
S'y'
I1121
sS'x'
I1121
sS'z'
I1121
sg4
I1121
sba(i__main__
Pixel
p3241
(dp3242
S'y'
I1551
sS'x'
I1551
sS'z'
I1551
sg4
I1551
sba(i__main__
Pixel
p3243
(dp3244
S'y'
I982
sS'x'
I982
sS'z'
I982
sg4
I982
sba(i__main__
Pixel
p3245
(dp3246
S'y'
I1828
sS'x'
I1828
sS'z'
I1828
sg4
I1828
sba(i__main__
Pixel
p3247
(dp3248
S'y'
I129
sS'x'
I129
sS'z'
I129
sg4
I129
sba(i__main__
Pixel
p3249
(dp3250
S'y'
I679
sS'x'
I679
sS'z'
I679
sg4
I679
sba(i__main__
Pixel
p3251
(dp3252
S'y'
I1067
sS'x'
I1067
sS'z'
I1067
sg4
I1067
sba(i__main__
Pixel
p3253
(dp3254
S'y'
I1366
sS'x'
I1366
sS'z'
I1366
sg4
I1366
sba(i__main__
Pixel
p3255
(dp3256
S'y'
I881
sS'x'
I881
sS'z'
I881
sg4
I881
sba(i__main__
Pixel
p3257
(dp3258
S'y'
I1938
sS'x'
I1938
sS'z'
I1938
sg4
I1938
sba(i__main__
Pixel
p3259
(dp3260
S'y'
I144
sS'x'
I144
sS'z'
I144
sg4
I144
sba(i__main__
Pixel
p3261
(dp3262
S'y'
I1116
sS'x'
I1116
sS'z'
I1116
sg4
I1116
sba(i__main__
Pixel
p3263
(dp3264
S'y'
I1570
sS'x'
I1570
sS'z'
I1570
sg4
I1570
sba(i__main__
Pixel
p3265
(dp3266
S'y'
I1205
sS'x'
I1205
sS'z'
I1205
sg4
I1205
sba(i__main__
Pixel
p3267
(dp3268
S'y'
I1983
sS'x'
I1983
sS'z'
I1983
sg4
I1983
sba(i__main__
Pixel
p3269
(dp3270
S'y'
I1633
sS'x'
I1633
sS'z'
I1633
sg4
I1633
sba(i__main__
Pixel
p3271
(dp3272
S'y'
I188
sS'x'
I188
sS'z'
I188
sg4
I188
sba(i__main__
Pixel
p3273
(dp3274
S'y'
I969
sS'x'
I969
sS'z'
I969
sg4
I969
sba(i__main__
Pixel
p3275
(dp3276
S'y'
I1091
sS'x'
I1091
sS'z'
I1091
sg4
I1091
sba(i__main__
Pixel
p3277
(dp3278
S'y'
I965
sS'x'
I965
sS'z'
I965
sg4
I965
sba(i__main__
Pixel
p3279
(dp3280
S'y'
I1212
sS'x'
I1212
sS'z'
I1212
sg4
I1212
sba(i__main__
Pixel
p3281
(dp3282
S'y'
I437
sS'x'
I437
sS'z'
I437
sg4
I437
sba(i__main__
Pixel
p3283
(dp3284
S'y'
I285
sS'x'
I285
sS'z'
I285
sg4
I285
sba(i__main__
Pixel
p3285
(dp3286
S'y'
I575
sS'x'
I575
sS'z'
I575
sg4
I575
sba(i__main__
Pixel
p3287
(dp3288
S'y'
I1694
sS'x'
I1694
sS'z'
I1694
sg4
I1694
sba(i__main__
Pixel
p3289
(dp3290
S'y'
I592
sS'x'
I592
sS'z'
I592
sg4
I592
sba(i__main__
Pixel
p3291
(dp3292
S'y'
I1933
sS'x'
I1933
sS'z'
I1933
sg4
I1933
sba(i__main__
Pixel
p3293
(dp3294
S'y'
I750
sS'x'
I750
sS'z'
I750
sg4
I750
sba(i__main__
Pixel
p3295
(dp3296
S'y'
I187
sS'x'
I187
sS'z'
I187
sg4
I187
sba(i__main__
Pixel
p3297
(dp3298
S'y'
I1909
sS'x'
I1909
sS'z'
I1909
sg4
I1909
sba(i__main__
Pixel
p3299
(dp3300
S'y'
I107
sS'x'
I107
sS'z'
I107
sg4
I107
sba(i__main__
Pixel
p3301
(dp3302
S'y'
I1265
sS'x'
I1265
sS'z'
I1265
sg4
I1265
sba(i__main__
Pixel
p3303
(dp3304
S'y'
I1274
sS'x'
I1274
sS'z'
I1274
sg4
I1274
sba(i__main__
Pixel
p3305
(dp3306
S'y'
I780
sS'x'
I780
sS'z'
I780
sg4
I780
sba(i__main__
Pixel
p3307
(dp3308
S'y'
I702
sS'x'
I702
sS'z'
I702
sg4
I702
sba(i__main__
Pixel
p3309
(dp3310
S'y'
I1826
sS'x'
I1826
sS'z'
I1826
sg4
I1826
sba(i__main__
Pixel
p3311
(dp3312
S'y'
I538
sS'x'
I538
sS'z'
I538
sg4
I538
sba(i__main__
Pixel
p3313
(dp3314
S'y'
I1717
sS'x'
I1717
sS'z'
I1717
sg4
I1717
sba(i__main__
Pixel
p3315
(dp3316
S'y'
I1285
sS'x'
I1285
sS'z'
I1285
sg4
I1285
sba(i__main__
Pixel
p3317
(dp3318
S'y'
I1410
sS'x'
I1410
sS'z'
I1410
sg4
I1410
sba(i__main__
Pixel
p3319
(dp3320
S'y'
I1329
sS'x'
I1329
sS'z'
I1329
sg4
I1329
sba(i__main__
Pixel
p3321
(dp3322
S'y'
I1396
sS'x'
I1396
sS'z'
I1396
sg4
I1396
sba(i__main__
Pixel
p3323
(dp3324
S'y'
I732
sS'x'
I732
sS'z'
I732
sg4
I732
sba(i__main__
Pixel
p3325
(dp3326
S'y'
I169
sS'x'
I169
sS'z'
I169
sg4
I169
sba(i__main__
Pixel
p3327
(dp3328
S'y'
I346
sS'x'
I346
sS'z'
I346
sg4
I346
sba(i__main__
Pixel
p3329
(dp3330
S'y'
I865
sS'x'
I865
sS'z'
I865
sg4
I865
sba(i__main__
Pixel
p3331
(dp3332
S'y'
I1876
sS'x'
I1876
sS'z'
I1876
sg4
I1876
sba(i__main__
Pixel
p3333
(dp3334
S'y'
I505
sS'x'
I505
sS'z'
I505
sg4
I505
sba(i__main__
Pixel
p3335
(dp3336
S'y'
I1931
sS'x'
I1931
sS'z'
I1931
sg4
I1931
sba(i__main__
Pixel
p3337
(dp3338
S'y'
I1475
sS'x'
I1475
sS'z'
I1475
sg4
I1475
sba(i__main__
Pixel
p3339
(dp3340
S'y'
I1489
sS'x'
I1489
sS'z'
I1489
sg4
I1489
sba(i__main__
Pixel
p3341
(dp3342
S'y'
I1726
sS'x'
I1726
sS'z'
I1726
sg4
I1726
sba(i__main__
Pixel
p3343
(dp3344
S'y'
I13
sS'x'
I13
sS'z'
I13
sg4
I13
sba(i__main__
Pixel
p3345
(dp3346
S'y'
I606
sS'x'
I606
sS'z'
I606
sg4
I606
sba(i__main__
Pixel
p3347
(dp3348
S'y'
I1480
sS'x'
I1480
sS'z'
I1480
sg4
I1480
sba(i__main__
Pixel
p3349
(dp3350
S'y'
I695
sS'x'
I695
sS'z'
I695
sg4
I695
sba(i__main__
Pixel
p3351
(dp3352
S'y'
I251
sS'x'
I251
sS'z'
I251
sg4
I251
sba(i__main__
Pixel
p3353
(dp3354
S'y'
I72
sS'x'
I72
sS'z'
I72
sg4
I72
sba(i__main__
Pixel
p3355
(dp3356
S'y'
I1261
sS'x'
I1261
sS'z'
I1261
sg4
I1261
sba(i__main__
Pixel
p3357
(dp3358
S'y'
I155
sS'x'
I155
sS'z'
I155
sg4
I155
sba(i__main__
Pixel
p3359
(dp3360
S'y'
I1023
sS'x'
I1023
sS'z'
I1023
sg4
I1023
sba(i__main__
Pixel
p3361
(dp3362
S'y'
I939
sS'x'
I939
sS'z'
I939
sg4
I939
sba(i__main__
Pixel
p3363
(dp3364
S'y'
I916
sS'x'
I916
sS'z'
I916
sg4
I916
sba(i__main__
Pixel
p3365
(dp3366
S'y'
I1333
sS'x'
I1333
sS'z'
I1333
sg4
I1333
sba(i__main__
Pixel
p3367
(dp3368
S'y'
I551
sS'x'
I551
sS'z'
I551
sg4
I551
sba(i__main__
Pixel
p3369
(dp3370
S'y'
I1671
sS'x'
I1671
sS'z'
I1671
sg4
I1671
sba(i__main__
Pixel
p3371
(dp3372
S'y'
I1258
sS'x'
I1258
sS'z'
I1258
sg4
I1258
sba(i__main__
Pixel
p3373
(dp3374
S'y'
I886
sS'x'
I886
sS'z'
I886
sg4
I886
sba(i__main__
Pixel
p3375
(dp3376
S'y'
I553
sS'x'
I553
sS'z'
I553
sg4
I553
sba(i__main__
Pixel
p3377
(dp3378
S'y'
I70
sS'x'
I70
sS'z'
I70
sg4
I70
sba(i__main__
Pixel
p3379
(dp3380
S'y'
I1377
sS'x'
I1377
sS'z'
I1377
sg4
I1377
sba(i__main__
Pixel
p3381
(dp3382
S'y'
I1988
sS'x'
I1988
sS'z'
I1988
sg4
I1988
sba(i__main__
Pixel
p3383
(dp3384
S'y'
I765
sS'x'
I765
sS'z'
I765
sg4
I765
sba(i__main__
Pixel
p3385
(dp3386
S'y'
I577
sS'x'
I577
sS'z'
I577
sg4
I577
sba(i__main__
Pixel
p3387
(dp3388
S'y'
I1216
sS'x'
I1216
sS'z'
I1216
sg4
I1216
sba(i__main__
Pixel
p3389
(dp3390
S'y'
I610
sS'x'
I610
sS'z'
I610
sg4
I610
sba(i__main__
Pixel
p3391
(dp3392
S'y'
I1959
sS'x'
I1959
sS'z'
I1959
sg4
I1959
sba(i__main__
Pixel
p3393
(dp3394
S'y'
I552
sS'x'
I552
sS'z'
I552
sg4
I552
sba(i__main__
Pixel
p3395
(dp3396
S'y'
I1676
sS'x'
I1676
sS'z'
I1676
sg4
I1676
sba(i__main__
Pixel
p3397
(dp3398
S'y'
I520
sS'x'
I520
sS'z'
I520
sg4
I520
sba(i__main__
Pixel
p3399
(dp3400
S'y'
I1013
sS'x'
I1013
sS'z'
I1013
sg4
I1013
sba(i__main__
Pixel
p3401
(dp3402
S'y'
I57
sS'x'
I57
sS'z'
I57
sg4
I57
sba(i__main__
Pixel
p3403
(dp3404
S'y'
I324
sS'x'
I324
sS'z'
I324
sg4
I324
sba(i__main__
Pixel
p3405
(dp3406
S'y'
I895
sS'x'
I895
sS'z'
I895
sg4
I895
sba(i__main__
Pixel
p3407
(dp3408
S'y'
I398
sS'x'
I398
sS'z'
I398
sg4
I398
sba(i__main__
Pixel
p3409
(dp3410
S'y'
I1743
sS'x'
I1743
sS'z'
I1743
sg4
I1743
sba(i__main__
Pixel
p3411
(dp3412
S'y'
I1487
sS'x'
I1487
sS'z'
I1487
sg4
I1487
sba(i__main__
Pixel
p3413
(dp3414
S'y'
I871
sS'x'
I871
sS'z'
I871
sg4
I871
sba(i__main__
Pixel
p3415
(dp3416
S'y'
I1282
sS'x'
I1282
sS'z'
I1282
sg4
I1282
sba(i__main__
Pixel
p3417
(dp3418
S'y'
I1431
sS'x'
I1431
sS'z'
I1431
sg4
I1431
sba(i__main__
Pixel
p3419
(dp3420
S'y'
I1979
sS'x'
I1979
sS'z'
I1979
sg4
I1979
sba(i__main__
Pixel
p3421
(dp3422
S'y'
I1070
sS'x'
I1070
sS'z'
I1070
sg4
I1070
sba(i__main__
Pixel
p3423
(dp3424
S'y'
I1509
sS'x'
I1509
sS'z'
I1509
sg4
I1509
sba(i__main__
Pixel
p3425
(dp3426
S'y'
I1327
sS'x'
I1327
sS'z'
I1327
sg4
I1327
sba(i__main__
Pixel
p3427
(dp3428
S'y'
I1865
sS'x'
I1865
sS'z'
I1865
sg4
I1865
sba(i__main__
Pixel
p3429
(dp3430
S'y'
I925
sS'x'
I925
sS'z'
I925
sg4
I925
sba(i__main__
Pixel
p3431
(dp3432
S'y'
I1056
sS'x'
I1056
sS'z'
I1056
sg4
I1056
sba(i__main__
Pixel
p3433
(dp3434
S'y'
I595
sS'x'
I595
sS'z'
I595
sg4
I595
sba(i__main__
Pixel
p3435
(dp3436
S'y'
I675
sS'x'
I675
sS'z'
I675
sg4
I675
sba(i__main__
Pixel
p3437
(dp3438
S'y'
I1352
sS'x'
I1352
sS'z'
I1352
sg4
I1352
sba(i__main__
Pixel
p3439
(dp3440
S'y'
I840
sS'x'
I840
sS'z'
I840
sg4
I840
sba(i__main__
Pixel
p3441
(dp3442
S'y'
I1357
sS'x'
I1357
sS'z'
I1357
sg4
I1357
sba(i__main__
Pixel
p3443
(dp3444
S'y'
I1455
sS'x'
I1455
sS'z'
I1455
sg4
I1455
sba(i__main__
Pixel
p3445
(dp3446
S'y'
I1901
sS'x'
I1901
sS'z'
I1901
sg4
I1901
sba(i__main__
Pixel
p3447
(dp3448
S'y'
I1002
sS'x'
I1002
sS'z'
I1002
sg4
I1002
sba(i__main__
Pixel
p3449
(dp3450
S'y'
I730
sS'x'
I730
sS'z'
I730
sg4
I730
sba(i__main__
Pixel
p3451
(dp3452
S'y'
I1373
sS'x'
I1373
sS'z'
I1373
sg4
I1373
sba(i__main__
Pixel
p3453
(dp3454
S'y'
I719
sS'x'
I719
sS'z'
I719
sg4
I719
sba(i__main__
Pixel
p3455
(dp3456
S'y'
I391
sS'x'
I391
sS'z'
I391
sg4
I391
sba(i__main__
Pixel
p3457
(dp3458
S'y'
I1578
sS'x'
I1578
sS'z'
I1578
sg4
I1578
sba(i__main__
Pixel
p3459
(dp3460
S'y'
I1303
sS'x'
I1303
sS'z'
I1303
sg4
I1303
sba(i__main__
Pixel
p3461
(dp3462
S'y'
I1406
sS'x'
I1406
sS'z'
I1406
sg4
I1406
sba(i__main__
Pixel
p3463
(dp3464
S'y'
I1711
sS'x'
I1711
sS'z'
I1711
sg4
I1711
sba(i__main__
Pixel
p3465
(dp3466
S'y'
I266
sS'x'
I266
sS'z'
I266
sg4
I266
sba(i__main__
Pixel
p3467
(dp3468
S'y'
I1150
sS'x'
I1150
sS'z'
I1150
sg4
I1150
sba(i__main__
Pixel
p3469
(dp3470
S'y'
I1376
sS'x'
I1376
sS'z'
I1376
sg4
I1376
sba(i__main__
Pixel
p3471
(dp3472
S'y'
I1703
sS'x'
I1703
sS'z'
I1703
sg4
I1703
sba(i__main__
Pixel
p3473
(dp3474
S'y'
I221
sS'x'
I221
sS'z'
I221
sg4
I221
sba(i__main__
Pixel
p3475
(dp3476
S'y'
I892
sS'x'
I892
sS'z'
I892
sg4
I892
sba(i__main__
Pixel
p3477
(dp3478
S'y'
I515
sS'x'
I515
sS'z'
I515
sg4
I515
sba(i__main__
Pixel
p3479
(dp3480
S'y'
I1281
sS'x'
I1281
sS'z'
I1281
sg4
I1281
sba(i__main__
Pixel
p3481
(dp3482
S'y'
I1531
sS'x'
I1531
sS'z'
I1531
sg4
I1531
sba(i__main__
Pixel
p3483
(dp3484
S'y'
I517
sS'x'
I517
sS'z'
I517
sg4
I517
sba(i__main__
Pixel
p3485
(dp3486
S'y'
I933
sS'x'
I933
sS'z'
I933
sg4
I933
sba(i__main__
Pixel
p3487
(dp3488
S'y'
I160
sS'x'
I160
sS'z'
I160
sg4
I160
sba(i__main__
Pixel
p3489
(dp3490
S'y'
I382
sS'x'
I382
sS'z'
I382
sg4
I382
sba(i__main__
Pixel
p3491
(dp3492
S'y'
I130
sS'x'
I130
sS'z'
I130
sg4
I130
sba(i__main__
Pixel
p3493
(dp3494
S'y'
I1405
sS'x'
I1405
sS'z'
I1405
sg4
I1405
sba(i__main__
Pixel
p3495
(dp3496
S'y'
I905
sS'x'
I905
sS'z'
I905
sg4
I905
sba(i__main__
Pixel
p3497
(dp3498
S'y'
I820
sS'x'
I820
sS'z'
I820
sg4
I820
sba(i__main__
Pixel
p3499
(dp3500
S'y'
I655
sS'x'
I655
sS'z'
I655
sg4
I655
sba(i__main__
Pixel
p3501
(dp3502
S'y'
I1530
sS'x'
I1530
sS'z'
I1530
sg4
I1530
sba(i__main__
Pixel
p3503
(dp3504
S'y'
I489
sS'x'
I489
sS'z'
I489
sg4
I489
sba(i__main__
Pixel
p3505
(dp3506
S'y'
I580
sS'x'
I580
sS'z'
I580
sg4
I580
sba(i__main__
Pixel
p3507
(dp3508
S'y'
I271
sS'x'
I271
sS'z'
I271
sg4
I271
sba(i__main__
Pixel
p3509
(dp3510
S'y'
I1562
sS'x'
I1562
sS'z'
I1562
sg4
I1562
sba(i__main__
Pixel
p3511
(dp3512
S'y'
I1940
sS'x'
I1940
sS'z'
I1940
sg4
I1940
sba(i__main__
Pixel
p3513
(dp3514
S'y'
I1973
sS'x'
I1973
sS'z'
I1973
sg4
I1973
sba(i__main__
Pixel
p3515
(dp3516
S'y'
I663
sS'x'
I663
sS'z'
I663
sg4
I663
sba(i__main__
Pixel
p3517
(dp3518
S'y'
I966
sS'x'
I966
sS'z'
I966
sg4
I966
sba(i__main__
Pixel
p3519
(dp3520
S'y'
I439
sS'x'
I439
sS'z'
I439
sg4
I439
sba(i__main__
Pixel
p3521
(dp3522
S'y'
I1164
sS'x'
I1164
sS'z'
I1164
sg4
I1164
sba(i__main__
Pixel
p3523
(dp3524
S'y'
I817
sS'x'
I817
sS'z'
I817
sg4
I817
sba(i__main__
Pixel
p3525
(dp3526
S'y'
I773
sS'x'
I773
sS'z'
I773
sg4
I773
sba(i__main__
Pixel
p3527
(dp3528
S'y'
I1322
sS'x'
I1322
sS'z'
I1322
sg4
I1322
sba(i__main__
Pixel
p3529
(dp3530
S'y'
I763
sS'x'
I763
sS'z'
I763
sg4
I763
sba(i__main__
Pixel
p3531
(dp3532
S'y'
I1511
sS'x'
I1511
sS'z'
I1511
sg4
I1511
sba(i__main__
Pixel
p3533
(dp3534
S'y'
I1618
sS'x'
I1618
sS'z'
I1618
sg4
I1618
sba(i__main__
Pixel
p3535
(dp3536
S'y'
I1664
sS'x'
I1664
sS'z'
I1664
sg4
I1664
sba(i__main__
Pixel
p3537
(dp3538
S'y'
I503
sS'x'
I503
sS'z'
I503
sg4
I503
sba(i__main__
Pixel
p3539
(dp3540
S'y'
I1515
sS'x'
I1515
sS'z'
I1515
sg4
I1515
sba(i__main__
Pixel
p3541
(dp3542
S'y'
I1528
sS'x'
I1528
sS'z'
I1528
sg4
I1528
sba(i__main__
Pixel
p3543
(dp3544
S'y'
I1810
sS'x'
I1810
sS'z'
I1810
sg4
I1810
sba(i__main__
Pixel
p3545
(dp3546
S'y'
I764
sS'x'
I764
sS'z'
I764
sg4
I764
sba(i__main__
Pixel
p3547
(dp3548
S'y'
I1120
sS'x'
I1120
sS'z'
I1120
sg4
I1120
sba(i__main__
Pixel
p3549
(dp3550
S'y'
I487
sS'x'
I487
sS'z'
I487
sg4
I487
sba(i__main__
Pixel
p3551
(dp3552
S'y'
I178
sS'x'
I178
sS'z'
I178
sg4
I178
sba(i__main__
Pixel
p3553
(dp3554
S'y'
I316
sS'x'
I316
sS'z'
I316
sg4
I316
sba(i__main__
Pixel
p3555
(dp3556
S'y'
I17
sS'x'
I17
sS'z'
I17
sg4
I17
sba(i__main__
Pixel
p3557
(dp3558
S'y'
I466
sS'x'
I466
sS'z'
I466
sg4
I466
sba(i__main__
Pixel
p3559
(dp3560
S'y'
I29
sS'x'
I29
sS'z'
I29
sg4
I29
sba(i__main__
Pixel
p3561
(dp3562
S'y'
I349
sS'x'
I349
sS'z'
I349
sg4
I349
sba(i__main__
Pixel
p3563
(dp3564
S'y'
I250
sS'x'
I250
sS'z'
I250
sg4
I250
sba(i__main__
Pixel
p3565
(dp3566
S'y'
I379
sS'x'
I379
sS'z'
I379
sg4
I379
sba(i__main__
Pixel
p3567
(dp3568
S'y'
I309
sS'x'
I309
sS'z'
I309
sg4
I309
sba(i__main__
Pixel
p3569
(dp3570
S'y'
I1280
sS'x'
I1280
sS'z'
I1280
sg4
I1280
sba(i__main__
Pixel
p3571
(dp3572
S'y'
I108
sS'x'
I108
sS'z'
I108
sg4
I108
sba(i__main__
Pixel
p3573
(dp3574
S'y'
I470
sS'x'
I470
sS'z'
I470
sg4
I470
sba(i__main__
Pixel
p3575
(dp3576
S'y'
I1941
sS'x'
I1941
sS'z'
I1941
sg4
I1941
sba(i__main__
Pixel
p3577
(dp3578
S'y'
I571
sS'x'
I571
sS'z'
I571
sg4
I571
sba(i__main__
Pixel
p3579
(dp3580
S'y'
I1898
sS'x'
I1898
sS'z'
I1898
sg4
I1898
sba(i__main__
Pixel
p3581
(dp3582
S'y'
I1840
sS'x'
I1840
sS'z'
I1840
sg4
I1840
sba(i__main__
Pixel
p3583
(dp3584
S'y'
I417
sS'x'
I417
sS'z'
I417
sg4
I417
sba(i__main__
Pixel
p3585
(dp3586
S'y'
I506
sS'x'
I506
sS'z'
I506
sg4
I506
sba(i__main__
Pixel
p3587
(dp3588
S'y'
I1825
sS'x'
I1825
sS'z'
I1825
sg4
I1825
sba(i__main__
Pixel
p3589
(dp3590
S'y'
I766
sS'x'
I766
sS'z'
I766
sg4
I766
sba(i__main__
Pixel
p3591
(dp3592
S'y'
I1524
sS'x'
I1524
sS'z'
I1524
sg4
I1524
sba(i__main__
Pixel
p3593
(dp3594
S'y'
I241
sS'x'
I241
sS'z'
I241
sg4
I241
sba(i__main__
Pixel
p3595
(dp3596
S'y'
I1479
sS'x'
I1479
sS'z'
I1479
sg4
I1479
sba(i__main__
Pixel
p3597
(dp3598
S'y'
I803
sS'x'
I803
sS'z'
I803
sg4
I803
sba(i__main__
Pixel
p3599
(dp3600
S'y'
I85
sS'x'
I85
sS'z'
I85
sg4
I85
sba(i__main__
Pixel
p3601
(dp3602
S'y'
I1106
sS'x'
I1106
sS'z'
I1106
sg4
I1106
sba(i__main__
Pixel
p3603
(dp3604
S'y'
I202
sS'x'
I202
sS'z'
I202
sg4
I202
sba(i__main__
Pixel
p3605
(dp3606
S'y'
I194
sS'x'
I194
sS'z'
I194
sg4
I194
sba(i__main__
Pixel
p3607
(dp3608
S'y'
I978
sS'x'
I978
sS'z'
I978
sg4
I978
sba(i__main__
Pixel
p3609
(dp3610
S'y'
I1158
sS'x'
I1158
sS'z'
I1158
sg4
I1158
sba(i__main__
Pixel
p3611
(dp3612
S'y'
I849
sS'x'
I849
sS'z'
I849
sg4
I849
sba(i__main__
Pixel
p3613
(dp3614
S'y'
I737
sS'x'
I737
sS'z'
I737
sg4
I737
sba(i__main__
Pixel
p3615
(dp3616
S'y'
I1995
sS'x'
I1995
sS'z'
I1995
sg4
I1995
sba(i__main__
Pixel
p3617
(dp3618
S'y'
I320
sS'x'
I320
sS'z'
I320
sg4
I320
sba(i__main__
Pixel
p3619
(dp3620
S'y'
I554
sS'x'
I554
sS'z'
I554
sg4
I554
sba(i__main__
Pixel
p3621
(dp3622
S'y'
I1774
sS'x'
I1774
sS'z'
I1774
sg4
I1774
sba(i__main__
Pixel
p3623
(dp3624
S'y'
I460
sS'x'
I460
sS'z'
I460
sg4
I460
sba(i__main__
Pixel
p3625
(dp3626
S'y'
I135
sS'x'
I135
sS'z'
I135
sg4
I135
sba(i__main__
Pixel
p3627
(dp3628
S'y'
I512
sS'x'
I512
sS'z'
I512
sg4
I512
sba(i__main__
Pixel
p3629
(dp3630
S'y'
I796
sS'x'
I796
sS'z'
I796
sg4
I796
sba(i__main__
Pixel
p3631
(dp3632
S'y'
I526
sS'x'
I526
sS'z'
I526
sg4
I526
sba(i__main__
Pixel
p3633
(dp3634
S'y'
I831
sS'x'
I831
sS'z'
I831
sg4
I831
sba(i__main__
Pixel
p3635
(dp3636
S'y'
I614
sS'x'
I614
sS'z'
I614
sg4
I614
sba(i__main__
Pixel
p3637
(dp3638
S'y'
I581
sS'x'
I581
sS'z'
I581
sg4
I581
sba(i__main__
Pixel
p3639
(dp3640
S'y'
I1853
sS'x'
I1853
sS'z'
I1853
sg4
I1853
sba(i__main__
Pixel
p3641
(dp3642
S'y'
I1288
sS'x'
I1288
sS'z'
I1288
sg4
I1288
sba(i__main__
Pixel
p3643
(dp3644
S'y'
I474
sS'x'
I474
sS'z'
I474
sg4
I474
sba(i__main__
Pixel
p3645
(dp3646
S'y'
I1847
sS'x'
I1847
sS'z'
I1847
sg4
I1847
sba(i__main__
Pixel
p3647
(dp3648
S'y'
I231
sS'x'
I231
sS'z'
I231
sg4
I231
sba(i__main__
Pixel
p3649
(dp3650
S'y'
I1331
sS'x'
I1331
sS'z'
I1331
sg4
I1331
sba(i__main__
Pixel
p3651
(dp3652
S'y'
I844
sS'x'
I844
sS'z'
I844
sg4
I844
sba(i__main__
Pixel
p3653
(dp3654
S'y'
I458
sS'x'
I458
sS'z'
I458
sg4
I458
sba(i__main__
Pixel
p3655
(dp3656
S'y'
I140
sS'x'
I140
sS'z'
I140
sg4
I140
sba(i__main__
Pixel
p3657
(dp3658
S'y'
I1811
sS'x'
I1811
sS'z'
I1811
sg4
I1811
sba(i__main__
Pixel
p3659
(dp3660
S'y'
I406
sS'x'
I406
sS'z'
I406
sg4
I406
sba(i__main__
Pixel
p3661
(dp3662
S'y'
I1851
sS'x'
I1851
sS'z'
I1851
sg4
I1851
sba(i__main__
Pixel
p3663
(dp3664
S'y'
I240
sS'x'
I240
sS'z'
I240
sg4
I240
sba(i__main__
Pixel
p3665
(dp3666
S'y'
I636
sS'x'
I636
sS'z'
I636
sg4
I636
sba(i__main__
Pixel
p3667
(dp3668
S'y'
I608
sS'x'
I608
sS'z'
I608
sg4
I608
sba(i__main__
Pixel
p3669
(dp3670
S'y'
I890
sS'x'
I890
sS'z'
I890
sg4
I890
sba(i__main__
Pixel
p3671
(dp3672
S'y'
I293
sS'x'
I293
sS'z'
I293
sg4
I293
sba(i__main__
Pixel
p3673
(dp3674
S'y'
I1738
sS'x'
I1738
sS'z'
I1738
sg4
I1738
sba(i__main__
Pixel
p3675
(dp3676
S'y'
I1724
sS'x'
I1724
sS'z'
I1724
sg4
I1724
sba(i__main__
Pixel
p3677
(dp3678
S'y'
I525
sS'x'
I525
sS'z'
I525
sg4
I525
sba(i__main__
Pixel
p3679
(dp3680
S'y'
I138
sS'x'
I138
sS'z'
I138
sg4
I138
sba(i__main__
Pixel
p3681
(dp3682
S'y'
I534
sS'x'
I534
sS'z'
I534
sg4
I534
sba(i__main__
Pixel
p3683
(dp3684
S'y'
I1277
sS'x'
I1277
sS'z'
I1277
sg4
I1277
sba(i__main__
Pixel
p3685
(dp3686
S'y'
I1195
sS'x'
I1195
sS'z'
I1195
sg4
I1195
sba(i__main__
Pixel
p3687
(dp3688
S'y'
I756
sS'x'
I756
sS'z'
I756
sg4
I756
sba(i__main__
Pixel
p3689
(dp3690
S'y'
I975
sS'x'
I975
sS'z'
I975
sg4
I975
sba(i__main__
Pixel
p3691
(dp3692
S'y'
I717
sS'x'
I717
sS'z'
I717
sg4
I717
sba(i__main__
Pixel
p3693
(dp3694
S'y'
I1663
sS'x'
I1663
sS'z'
I1663
sg4
I1663
sba(i__main__
Pixel
p3695
(dp3696
S'y'
I943
sS'x'
I943
sS'z'
I943
sg4
I943
sba(i__main__
Pixel
p3697
(dp3698
S'y'
I1678
sS'x'
I1678
sS'z'
I1678
sg4
I1678
sba(i__main__
Pixel
p3699
(dp3700
S'y'
I133
sS'x'
I133
sS'z'
I133
sg4
I133
sba(i__main__
Pixel
p3701
(dp3702
S'y'
I600
sS'x'
I600
sS'z'
I600
sg4
I600
sba(i__main__
Pixel
p3703
(dp3704
S'y'
I847
sS'x'
I847
sS'z'
I847
sg4
I847
sba(i__main__
Pixel
p3705
(dp3706
S'y'
I543
sS'x'
I543
sS'z'
I543
sg4
I543
sba(i__main__
Pixel
p3707
(dp3708
S'y'
I936
sS'x'
I936
sS'z'
I936
sg4
I936
sba(i__main__
Pixel
p3709
(dp3710
S'y'
I218
sS'x'
I218
sS'z'
I218
sg4
I218
sba(i__main__
Pixel
p3711
(dp3712
S'y'
I1845
sS'x'
I1845
sS'z'
I1845
sg4
I1845
sba(i__main__
Pixel
p3713
(dp3714
S'y'
I1381
sS'x'
I1381
sS'z'
I1381
sg4
I1381
sba(i__main__
Pixel
p3715
(dp3716
S'y'
I1099
sS'x'
I1099
sS'z'
I1099
sg4
I1099
sba(i__main__
Pixel
p3717
(dp3718
S'y'
I875
sS'x'
I875
sS'z'
I875
sg4
I875
sba(i__main__
Pixel
p3719
(dp3720
S'y'
I1757
sS'x'
I1757
sS'z'
I1757
sg4
I1757
sba(i__main__
Pixel
p3721
(dp3722
S'y'
I370
sS'x'
I370
sS'z'
I370
sg4
I370
sba(i__main__
Pixel
p3723
(dp3724
S'y'
I1167
sS'x'
I1167
sS'z'
I1167
sg4
I1167
sba(i__main__
Pixel
p3725
(dp3726
S'y'
I793
sS'x'
I793
sS'z'
I793
sg4
I793
sba(i__main__
Pixel
p3727
(dp3728
S'y'
I132
sS'x'
I132
sS'z'
I132
sg4
I132
sba(i__main__
Pixel
p3729
(dp3730
S'y'
I1482
sS'x'
I1482
sS'z'
I1482
sg4
I1482
sba(i__main__
Pixel
p3731
(dp3732
S'y'
I33
sS'x'
I33
sS'z'
I33
sg4
I33
sba(i__main__
Pixel
p3733
(dp3734
S'y'
I799
sS'x'
I799
sS'z'
I799
sg4
I799
sba(i__main__
Pixel
p3735
(dp3736
S'y'
I354
sS'x'
I354
sS'z'
I354
sg4
I354
sba(i__main__
Pixel
p3737
(dp3738
S'y'
I1728
sS'x'
I1728
sS'z'
I1728
sg4
I1728
sba(i__main__
Pixel
p3739
(dp3740
S'y'
I1549
sS'x'
I1549
sS'z'
I1549
sg4
I1549
sba(i__main__
Pixel
p3741
(dp3742
S'y'
I1096
sS'x'
I1096
sS'z'
I1096
sg4
I1096
sba(i__main__
Pixel
p3743
(dp3744
S'y'
I1533
sS'x'
I1533
sS'z'
I1533
sg4
I1533
sba(i__main__
Pixel
p3745
(dp3746
S'y'
I69
sS'x'
I69
sS'z'
I69
sg4
I69
sba(i__main__
Pixel
p3747
(dp3748
S'y'
I143
sS'x'
I143
sS'z'
I143
sg4
I143
sba(i__main__
Pixel
p3749
(dp3750
S'y'
I1131
sS'x'
I1131
sS'z'
I1131
sg4
I1131
sba(i__main__
Pixel
p3751
(dp3752
S'y'
I1950
sS'x'
I1950
sS'z'
I1950
sg4
I1950
sba(i__main__
Pixel
p3753
(dp3754
S'y'
I1156
sS'x'
I1156
sS'z'
I1156
sg4
I1156
sba(i__main__
Pixel
p3755
(dp3756
S'y'
I485
sS'x'
I485
sS'z'
I485
sg4
I485
sba(i__main__
Pixel
p3757
(dp3758
S'y'
I14
sS'x'
I14
sS'z'
I14
sg4
I14
sba(i__main__
Pixel
p3759
(dp3760
S'y'
I784
sS'x'
I784
sS'z'
I784
sg4
I784
sba(i__main__
Pixel
p3761
(dp3762
S'y'
I1468
sS'x'
I1468
sS'z'
I1468
sg4
I1468
sba(i__main__
Pixel
p3763
(dp3764
S'y'
I1864
sS'x'
I1864
sS'z'
I1864
sg4
I1864
sba(i__main__
Pixel
p3765
(dp3766
S'y'
I665
sS'x'
I665
sS'z'
I665
sg4
I665
sba(i__main__
Pixel
p3767
(dp3768
S'y'
I1520
sS'x'
I1520
sS'z'
I1520
sg4
I1520
sba(i__main__
Pixel
p3769
(dp3770
S'y'
I1497
sS'x'
I1497
sS'z'
I1497
sg4
I1497
sba(i__main__
Pixel
p3771
(dp3772
S'y'
I545
sS'x'
I545
sS'z'
I545
sg4
I545
sba(i__main__
Pixel
p3773
(dp3774
S'y'
I811
sS'x'
I811
sS'z'
I811
sg4
I811
sba(i__main__
Pixel
p3775
(dp3776
S'y'
I1075
sS'x'
I1075
sS'z'
I1075
sg4
I1075
sba(i__main__
Pixel
p3777
(dp3778
S'y'
I1977
sS'x'
I1977
sS'z'
I1977
sg4
I1977
sba(i__main__
Pixel
p3779
(dp3780
S'y'
I934
sS'x'
I934
sS'z'
I934
sg4
I934
sba(i__main__
Pixel
p3781
(dp3782
S'y'
I915
sS'x'
I915
sS'z'
I915
sg4
I915
sba(i__main__
Pixel
p3783
(dp3784
S'y'
I866
sS'x'
I866
sS'z'
I866
sg4
I866
sba(i__main__
Pixel
p3785
(dp3786
S'y'
I1413
sS'x'
I1413
sS'z'
I1413
sg4
I1413
sba(i__main__
Pixel
p3787
(dp3788
S'y'
I1244
sS'x'
I1244
sS'z'
I1244
sg4
I1244
sba(i__main__
Pixel
p3789
(dp3790
S'y'
I252
sS'x'
I252
sS'z'
I252
sg4
I252
sba(i__main__
Pixel
p3791
(dp3792
S'y'
I416
sS'x'
I416
sS'z'
I416
sg4
I416
sba(i__main__
Pixel
p3793
(dp3794
S'y'
I1061
sS'x'
I1061
sS'z'
I1061
sg4
I1061
sba(i__main__
Pixel
p3795
(dp3796
S'y'
I885
sS'x'
I885
sS'z'
I885
sg4
I885
sba(i__main__
Pixel
p3797
(dp3798
S'y'
I1623
sS'x'
I1623
sS'z'
I1623
sg4
I1623
sba(i__main__
Pixel
p3799
(dp3800
S'y'
I801
sS'x'
I801
sS'z'
I801
sg4
I801
sba(i__main__
Pixel
p3801
(dp3802
S'y'
I882
sS'x'
I882
sS'z'
I882
sg4
I882
sba(i__main__
Pixel
p3803
(dp3804
S'y'
I1083
sS'x'
I1083
sS'z'
I1083
sg4
I1083
sba(i__main__
Pixel
p3805
(dp3806
S'y'
I1343
sS'x'
I1343
sS'z'
I1343
sg4
I1343
sba(i__main__
Pixel
p3807
(dp3808
S'y'
I528
sS'x'
I528
sS'z'
I528
sg4
I528
sba(i__main__
Pixel
p3809
(dp3810
S'y'
I217
sS'x'
I217
sS'z'
I217
sg4
I217
sba(i__main__
Pixel
p3811
(dp3812
S'y'
I647
sS'x'
I647
sS'z'
I647
sg4
I647
sba(i__main__
Pixel
p3813
(dp3814
S'y'
I930
sS'x'
I930
sS'z'
I930
sg4
I930
sba(i__main__
Pixel
p3815
(dp3816
S'y'
I644
sS'x'
I644
sS'z'
I644
sg4
I644
sba(i__main__
Pixel
p3817
(dp3818
S'y'
I826
sS'x'
I826
sS'z'
I826
sg4
I826
sba(i__main__
Pixel
p3819
(dp3820
S'y'
I1337
sS'x'
I1337
sS'z'
I1337
sg4
I1337
sba(i__main__
Pixel
p3821
(dp3822
S'y'
I1741
sS'x'
I1741
sS'z'
I1741
sg4
I1741
sba(i__main__
Pixel
p3823
(dp3824
S'y'
I683
sS'x'
I683
sS'z'
I683
sg4
I683
sba(i__main__
Pixel
p3825
(dp3826
S'y'
I1935
sS'x'
I1935
sS'z'
I1935
sg4
I1935
sba(i__main__
Pixel
p3827
(dp3828
S'y'
I1025
sS'x'
I1025
sS'z'
I1025
sg4
I1025
sba(i__main__
Pixel
p3829
(dp3830
S'y'
I923
sS'x'
I923
sS'z'
I923
sg4
I923
sba(i__main__
Pixel
p3831
(dp3832
S'y'
I1412
sS'x'
I1412
sS'z'
I1412
sg4
I1412
sba(i__main__
Pixel
p3833
(dp3834
S'y'
I861
sS'x'
I861
sS'z'
I861
sg4
I861
sba(i__main__
Pixel
p3835
(dp3836
S'y'
I1905
sS'x'
I1905
sS'z'
I1905
sg4
I1905
sba(i__main__
Pixel
p3837
(dp3838
S'y'
I295
sS'x'
I295
sS'z'
I295
sg4
I295
sba(i__main__
Pixel
p3839
(dp3840
S'y'
I1109
sS'x'
I1109
sS'z'
I1109
sg4
I1109
sba(i__main__
Pixel
p3841
(dp3842
S'y'
I1617
sS'x'
I1617
sS'z'
I1617
sg4
I1617
sba(i__main__
Pixel
p3843
(dp3844
S'y'
I1014
sS'x'
I1014
sS'z'
I1014
sg4
I1014
sba(i__main__
Pixel
p3845
(dp3846
S'y'
I199
sS'x'
I199
sS'z'
I199
sg4
I199
sba(i__main__
Pixel
p3847
(dp3848
S'y'
I1974
sS'x'
I1974
sS'z'
I1974
sg4
I1974
sba(i__main__
Pixel
p3849
(dp3850
S'y'
I1534
sS'x'
I1534
sS'z'
I1534
sg4
I1534
sba(i__main__
Pixel
p3851
(dp3852
S'y'
I1218
sS'x'
I1218
sS'z'
I1218
sg4
I1218
sba(i__main__
Pixel
p3853
(dp3854
S'y'
I291
sS'x'
I291
sS'z'
I291
sg4
I291
sba(i__main__
Pixel
p3855
(dp3856
S'y'
I725
sS'x'
I725
sS'z'
I725
sg4
I725
sba(i__main__
Pixel
p3857
(dp3858
S'y'
I518
sS'x'
I518
sS'z'
I518
sg4
I518
sba(i__main__
Pixel
p3859
(dp3860
S'y'
I1529
sS'x'
I1529
sS'z'
I1529
sg4
I1529
sba(i__main__
Pixel
p3861
(dp3862
S'y'
I1599
sS'x'
I1599
sS'z'
I1599
sg4
I1599
sba(i__main__
Pixel
p3863
(dp3864
S'y'
I1315
sS'x'
I1315
sS'z'
I1315
sg4
I1315
sba(i__main__
Pixel
p3865
(dp3866
S'y'
I1348
sS'x'
I1348
sS'z'
I1348
sg4
I1348
sba(i__main__
Pixel
p3867
(dp3868
S'y'
I1153
sS'x'
I1153
sS'z'
I1153
sg4
I1153
sba(i__main__
Pixel
p3869
(dp3870
S'y'
I2
sS'x'
I2
sS'z'
I2
sg4
I2
sba(i__main__
Pixel
p3871
(dp3872
S'y'
I1356
sS'x'
I1356
sS'z'
I1356
sg4
I1356
sba(i__main__
Pixel
p3873
(dp3874
S'y'
I447
sS'x'
I447
sS'z'
I447
sg4
I447
sba(i__main__
Pixel
p3875
(dp3876
S'y'
I1707
sS'x'
I1707
sS'z'
I1707
sg4
I1707
sba(i__main__
Pixel
p3877
(dp3878
S'y'
I1388
sS'x'
I1388
sS'z'
I1388
sg4
I1388
sba(i__main__
Pixel
p3879
(dp3880
S'y'
I522
sS'x'
I522
sS'z'
I522
sg4
I522
sba(i__main__
Pixel
p3881
(dp3882
S'y'
I1060
sS'x'
I1060
sS'z'
I1060
sg4
I1060
sba(i__main__
Pixel
p3883
(dp3884
S'y'
I639
sS'x'
I639
sS'z'
I639
sg4
I639
sba(i__main__
Pixel
p3885
(dp3886
S'y'
I1302
sS'x'
I1302
sS'z'
I1302
sg4
I1302
sba(i__main__
Pixel
p3887
(dp3888
S'y'
I42
sS'x'
I42
sS'z'
I42
sg4
I42
sba(i__main__
Pixel
p3889
(dp3890
S'y'
I836
sS'x'
I836
sS'z'
I836
sg4
I836
sba(i__main__
Pixel
p3891
(dp3892
S'y'
I1763
sS'x'
I1763
sS'z'
I1763
sg4
I1763
sba(i__main__
Pixel
p3893
(dp3894
S'y'
I622
sS'x'
I622
sS'z'
I622
sg4
I622
sba(i__main__
Pixel
p3895
(dp3896
S'y'
I664
sS'x'
I664
sS'z'
I664
sg4
I664
sba(i__main__
Pixel
p3897
(dp3898
S'y'
I567
sS'x'
I567
sS'z'
I567
sg4
I567
sba(i__main__
Pixel
p3899
(dp3900
S'y'
I1408
sS'x'
I1408
sS'z'
I1408
sg4
I1408
sba(i__main__
Pixel
p3901
(dp3902
S'y'
I1518
sS'x'
I1518
sS'z'
I1518
sg4
I1518
sba(i__main__
Pixel
p3903
(dp3904
S'y'
I649
sS'x'
I649
sS'z'
I649
sg4
I649
sba(i__main__
Pixel
p3905
(dp3906
S'y'
I128
sS'x'
I128
sS'z'
I128
sg4
I128
sba(i__main__
Pixel
p3907
(dp3908
S'y'
I193
sS'x'
I193
sS'z'
I193
sg4
I193
sba(i__main__
Pixel
p3909
(dp3910
S'y'
I1272
sS'x'
I1272
sS'z'
I1272
sg4
I1272
sba(i__main__
Pixel
p3911
(dp3912
S'y'
I150
sS'x'
I150
sS'z'
I150
sg4
I150
sba(i__main__
Pixel
p3913
(dp3914
S'y'
I279
sS'x'
I279
sS'z'
I279
sg4
I279
sba(i__main__
Pixel
p3915
(dp3916
S'y'
I1772
sS'x'
I1772
sS'z'
I1772
sg4
I1772
sba(i__main__
Pixel
p3917
(dp3918
S'y'
I1172
sS'x'
I1172
sS'z'
I1172
sg4
I1172
sba(i__main__
Pixel
p3919
(dp3920
S'y'
I674
sS'x'
I674
sS'z'
I674
sg4
I674
sba(i__main__
Pixel
p3921
(dp3922
S'y'
I395
sS'x'
I395
sS'z'
I395
sg4
I395
sba(i__main__
Pixel
p3923
(dp3924
S'y'
I516
sS'x'
I516
sS'z'
I516
sg4
I516
sba(i__main__
Pixel
p3925
(dp3926
S'y'
I1949
sS'x'
I1949
sS'z'
I1949
sg4
I1949
sba(i__main__
Pixel
p3927
(dp3928
S'y'
I1391
sS'x'
I1391
sS'z'
I1391
sg4
I1391
sba(i__main__
Pixel
p3929
(dp3930
S'y'
I1054
sS'x'
I1054
sS'z'
I1054
sg4
I1054
sba(i__main__
Pixel
p3931
(dp3932
S'y'
I720
sS'x'
I720
sS'z'
I720
sg4
I720
sba(i__main__
Pixel
p3933
(dp3934
S'y'
I519
sS'x'
I519
sS'z'
I519
sg4
I519
sba(i__main__
Pixel
p3935
(dp3936
S'y'
I1432
sS'x'
I1432
sS'z'
I1432
sg4
I1432
sba(i__main__
Pixel
p3937
(dp3938
S'y'
I1646
sS'x'
I1646
sS'z'
I1646
sg4
I1646
sba(i__main__
Pixel
p3939
(dp3940
S'y'
I749
sS'x'
I749
sS'z'
I749
sg4
I749
sba(i__main__
Pixel
p3941
(dp3942
S'y'
I1204
sS'x'
I1204
sS'z'
I1204
sg4
I1204
sba(i__main__
Pixel
p3943
(dp3944
S'y'
I1350
sS'x'
I1350
sS'z'
I1350
sg4
I1350
sba(i__main__
Pixel
p3945
(dp3946
S'y'
I1035
sS'x'
I1035
sS'z'
I1035
sg4
I1035
sba(i__main__
Pixel
p3947
(dp3948
S'y'
I1271
sS'x'
I1271
sS'z'
I1271
sg4
I1271
sba(i__main__
Pixel
p3949
(dp3950
S'y'
I418
sS'x'
I418
sS'z'
I418
sg4
I418
sba(i__main__
Pixel
p3951
(dp3952
S'y'
I704
sS'x'
I704
sS'z'
I704
sg4
I704
sba(i__main__
Pixel
p3953
(dp3954
S'y'
I716
sS'x'
I716
sS'z'
I716
sg4
I716
sba(i__main__
Pixel
p3955
(dp3956
S'y'
I145
sS'x'
I145
sS'z'
I145
sg4
I145
sba(i__main__
Pixel
p3957
(dp3958
S'y'
I640
sS'x'
I640
sS'z'
I640
sg4
I640
sba(i__main__
Pixel
p3959
(dp3960
S'y'
I1250
sS'x'
I1250
sS'z'
I1250
sg4
I1250
sba(i__main__
Pixel
p3961
(dp3962
S'y'
I941
sS'x'
I941
sS'z'
I941
sg4
I941
sba(i__main__
Pixel
p3963
(dp3964
S'y'
I857
sS'x'
I857
sS'z'
I857
sg4
I857
sba(i__main__
Pixel
p3965
(dp3966
S'y'
I1686
sS'x'
I1686
sS'z'
I1686
sg4
I1686
sba(i__main__
Pixel
p3967
(dp3968
S'y'
I1507
sS'x'
I1507
sS'z'
I1507
sg4
I1507
sba(i__main__
Pixel
p3969
(dp3970
S'y'
I1433
sS'x'
I1433
sS'z'
I1433
sg4
I1433
sba(i__main__
Pixel
p3971
(dp3972
S'y'
I1467
sS'x'
I1467
sS'z'
I1467
sg4
I1467
sba(i__main__
Pixel
p3973
(dp3974
S'y'
I254
sS'x'
I254
sS'z'
I254
sg4
I254
sba(i__main__
Pixel
p3975
(dp3976
S'y'
I1402
sS'x'
I1402
sS'z'
I1402
sg4
I1402
sba(i__main__
Pixel
p3977
(dp3978
S'y'
I301
sS'x'
I301
sS'z'
I301
sg4
I301
sba(i__main__
Pixel
p3979
(dp3980
S'y'
I1030
sS'x'
I1030
sS'z'
I1030
sg4
I1030
sba(i__main__
Pixel
p3981
(dp3982
S'y'
I1536
sS'x'
I1536
sS'z'
I1536
sg4
I1536
sba(i__main__
Pixel
p3983
(dp3984
S'y'
I421
sS'x'
I421
sS'z'
I421
sg4
I421
sba(i__main__
Pixel
p3985
(dp3986
S'y'
I4
sS'x'
I4
sS'z'
I4
sg4
I4
sba(i__main__
Pixel
p3987
(dp3988
S'y'
I58
sS'x'
I58
sS'z'
I58
sg4
I58
sba(i__main__
Pixel
p3989
(dp3990
S'y'
I164
sS'x'
I164
sS'z'
I164
sg4
I164
sba(i__main__
Pixel
p3991
(dp3992
S'y'
I794
sS'x'
I794
sS'z'
I794
sg4
I794
sba(i__main__
Pixel
p3993
(dp3994
S'y'
I1000
sS'x'
I1000
sS'z'
I1000
sg4
I1000
sba(i__main__
Pixel
p3995
(dp3996
S'y'
I1747
sS'x'
I1747
sS'z'
I1747
sg4
I1747
sba(i__main__
Pixel
p3997
(dp3998
S'y'
I988
sS'x'
I988
sS'z'
I988
sg4
I988
sba(i__main__
Pixel
p3999
(dp4000
S'y'
I87
sS'x'
I87
sS'z'
I87
sg4
I87
sba(i__main__
Pixel
p4001
(dp4002
S'y'
I1607
sS'x'
I1607
sS'z'
I1607
sg4
I1607
sba.